
TWI_Master.elf:     file format elf32-avr

Sections:
Idx Name          Size      VMA       LMA       File off  Algn
  0 .text         00000b22  00000000  00000000  00000054  2**1
                  CONTENTS, ALLOC, LOAD, READONLY, CODE
  1 .stab         00001074  00000000  00000000  00000b78  2**2
                  CONTENTS, READONLY, DEBUGGING
  2 .stabstr      00000702  00000000  00000000  00001bec  2**0
                  CONTENTS, READONLY, DEBUGGING

Disassembly of section .text:

00000000 <__vectors>:
   0:	0c 94 2a 00 	jmp	0x54	; 0x54 <__ctors_end>
   4:	0c 94 34 00 	jmp	0x68	; 0x68 <__bad_interrupt>
   8:	0c 94 34 00 	jmp	0x68	; 0x68 <__bad_interrupt>
   c:	0c 94 34 00 	jmp	0x68	; 0x68 <__bad_interrupt>
  10:	0c 94 34 00 	jmp	0x68	; 0x68 <__bad_interrupt>
  14:	0c 94 34 00 	jmp	0x68	; 0x68 <__bad_interrupt>
  18:	0c 94 34 00 	jmp	0x68	; 0x68 <__bad_interrupt>
  1c:	0c 94 34 00 	jmp	0x68	; 0x68 <__bad_interrupt>
  20:	0c 94 34 00 	jmp	0x68	; 0x68 <__bad_interrupt>
  24:	0c 94 34 00 	jmp	0x68	; 0x68 <__bad_interrupt>
  28:	0c 94 34 00 	jmp	0x68	; 0x68 <__bad_interrupt>
  2c:	0c 94 34 00 	jmp	0x68	; 0x68 <__bad_interrupt>
  30:	0c 94 34 00 	jmp	0x68	; 0x68 <__bad_interrupt>
  34:	0c 94 34 00 	jmp	0x68	; 0x68 <__bad_interrupt>
  38:	0c 94 34 00 	jmp	0x68	; 0x68 <__bad_interrupt>
  3c:	0c 94 34 00 	jmp	0x68	; 0x68 <__bad_interrupt>
  40:	0c 94 34 00 	jmp	0x68	; 0x68 <__bad_interrupt>
  44:	0c 94 34 00 	jmp	0x68	; 0x68 <__bad_interrupt>
  48:	0c 94 34 00 	jmp	0x68	; 0x68 <__bad_interrupt>
  4c:	0c 94 34 00 	jmp	0x68	; 0x68 <__bad_interrupt>
  50:	0c 94 34 00 	jmp	0x68	; 0x68 <__bad_interrupt>

00000054 <__ctors_end>:
  54:	11 24       	eor	r1, r1
  56:	1f be       	out	0x3f, r1	; 63
  58:	cf e5       	ldi	r28, 0x5F	; 95
  5a:	d8 e0       	ldi	r29, 0x08	; 8
  5c:	de bf       	out	0x3e, r29	; 62
  5e:	cd bf       	out	0x3d, r28	; 61
  60:	0e 94 65 02 	call	0x4ca	; 0x4ca <main>
  64:	0c 94 8f 05 	jmp	0xb1e	; 0xb1e <_exit>

00000068 <__bad_interrupt>:
  68:	0c 94 00 00 	jmp	0	; 0x0 <__vectors>

0000006c <DIO_u8SetPinValue>:
#include "DIO_private.h"
#include "DIO_register.h"


u8 DIO_u8SetPinValue(u8 Copy_u8Port, u8 Copy_u8Pin ,u8 Copy_u8Value)
{
  6c:	df 93       	push	r29
  6e:	cf 93       	push	r28
  70:	cd b7       	in	r28, 0x3d	; 61
  72:	de b7       	in	r29, 0x3e	; 62
  74:	28 97       	sbiw	r28, 0x08	; 8
  76:	0f b6       	in	r0, 0x3f	; 63
  78:	f8 94       	cli
  7a:	de bf       	out	0x3e, r29	; 62
  7c:	0f be       	out	0x3f, r0	; 63
  7e:	cd bf       	out	0x3d, r28	; 61
  80:	8a 83       	std	Y+2, r24	; 0x02
  82:	6b 83       	std	Y+3, r22	; 0x03
  84:	4c 83       	std	Y+4, r20	; 0x04
	u8 Local_u8ErrorState=0;
  86:	19 82       	std	Y+1, r1	; 0x01
	if(Copy_u8Pin<=DIO_u8PIN7)
  88:	8b 81       	ldd	r24, Y+3	; 0x03
  8a:	88 30       	cpi	r24, 0x08	; 8
  8c:	08 f0       	brcs	.+2      	; 0x90 <DIO_u8SetPinValue+0x24>
  8e:	f4 c0       	rjmp	.+488    	; 0x278 <DIO_u8SetPinValue+0x20c>
	{
		if(Copy_u8Value==DIO_u8PIN_HIGH)
  90:	8c 81       	ldd	r24, Y+4	; 0x04
  92:	81 30       	cpi	r24, 0x01	; 1
  94:	09 f0       	breq	.+2      	; 0x98 <DIO_u8SetPinValue+0x2c>
  96:	72 c0       	rjmp	.+228    	; 0x17c <DIO_u8SetPinValue+0x110>
		{
			switch(Copy_u8Port)
  98:	8a 81       	ldd	r24, Y+2	; 0x02
  9a:	28 2f       	mov	r18, r24
  9c:	30 e0       	ldi	r19, 0x00	; 0
  9e:	38 87       	std	Y+8, r19	; 0x08
  a0:	2f 83       	std	Y+7, r18	; 0x07
  a2:	8f 81       	ldd	r24, Y+7	; 0x07
  a4:	98 85       	ldd	r25, Y+8	; 0x08
  a6:	81 30       	cpi	r24, 0x01	; 1
  a8:	91 05       	cpc	r25, r1
  aa:	49 f1       	breq	.+82     	; 0xfe <DIO_u8SetPinValue+0x92>
  ac:	2f 81       	ldd	r18, Y+7	; 0x07
  ae:	38 85       	ldd	r19, Y+8	; 0x08
  b0:	22 30       	cpi	r18, 0x02	; 2
  b2:	31 05       	cpc	r19, r1
  b4:	2c f4       	brge	.+10     	; 0xc0 <DIO_u8SetPinValue+0x54>
  b6:	8f 81       	ldd	r24, Y+7	; 0x07
  b8:	98 85       	ldd	r25, Y+8	; 0x08
  ba:	00 97       	sbiw	r24, 0x00	; 0
  bc:	61 f0       	breq	.+24     	; 0xd6 <DIO_u8SetPinValue+0x6a>
  be:	5b c0       	rjmp	.+182    	; 0x176 <DIO_u8SetPinValue+0x10a>
  c0:	2f 81       	ldd	r18, Y+7	; 0x07
  c2:	38 85       	ldd	r19, Y+8	; 0x08
  c4:	22 30       	cpi	r18, 0x02	; 2
  c6:	31 05       	cpc	r19, r1
  c8:	71 f1       	breq	.+92     	; 0x126 <DIO_u8SetPinValue+0xba>
  ca:	8f 81       	ldd	r24, Y+7	; 0x07
  cc:	98 85       	ldd	r25, Y+8	; 0x08
  ce:	83 30       	cpi	r24, 0x03	; 3
  d0:	91 05       	cpc	r25, r1
  d2:	e9 f1       	breq	.+122    	; 0x14e <DIO_u8SetPinValue+0xe2>
  d4:	50 c0       	rjmp	.+160    	; 0x176 <DIO_u8SetPinValue+0x10a>
			{
				case DIO_u8PORTA : SET_BIT(PORTA, Copy_u8Pin); break;
  d6:	ab e3       	ldi	r26, 0x3B	; 59
  d8:	b0 e0       	ldi	r27, 0x00	; 0
  da:	eb e3       	ldi	r30, 0x3B	; 59
  dc:	f0 e0       	ldi	r31, 0x00	; 0
  de:	80 81       	ld	r24, Z
  e0:	48 2f       	mov	r20, r24
  e2:	8b 81       	ldd	r24, Y+3	; 0x03
  e4:	28 2f       	mov	r18, r24
  e6:	30 e0       	ldi	r19, 0x00	; 0
  e8:	81 e0       	ldi	r24, 0x01	; 1
  ea:	90 e0       	ldi	r25, 0x00	; 0
  ec:	02 2e       	mov	r0, r18
  ee:	02 c0       	rjmp	.+4      	; 0xf4 <DIO_u8SetPinValue+0x88>
  f0:	88 0f       	add	r24, r24
  f2:	99 1f       	adc	r25, r25
  f4:	0a 94       	dec	r0
  f6:	e2 f7       	brpl	.-8      	; 0xf0 <DIO_u8SetPinValue+0x84>
  f8:	84 2b       	or	r24, r20
  fa:	8c 93       	st	X, r24
  fc:	bf c0       	rjmp	.+382    	; 0x27c <DIO_u8SetPinValue+0x210>
				case DIO_u8PORTB : SET_BIT(PORTB, Copy_u8Pin); break;
  fe:	a8 e3       	ldi	r26, 0x38	; 56
 100:	b0 e0       	ldi	r27, 0x00	; 0
 102:	e8 e3       	ldi	r30, 0x38	; 56
 104:	f0 e0       	ldi	r31, 0x00	; 0
 106:	80 81       	ld	r24, Z
 108:	48 2f       	mov	r20, r24
 10a:	8b 81       	ldd	r24, Y+3	; 0x03
 10c:	28 2f       	mov	r18, r24
 10e:	30 e0       	ldi	r19, 0x00	; 0
 110:	81 e0       	ldi	r24, 0x01	; 1
 112:	90 e0       	ldi	r25, 0x00	; 0
 114:	02 2e       	mov	r0, r18
 116:	02 c0       	rjmp	.+4      	; 0x11c <DIO_u8SetPinValue+0xb0>
 118:	88 0f       	add	r24, r24
 11a:	99 1f       	adc	r25, r25
 11c:	0a 94       	dec	r0
 11e:	e2 f7       	brpl	.-8      	; 0x118 <DIO_u8SetPinValue+0xac>
 120:	84 2b       	or	r24, r20
 122:	8c 93       	st	X, r24
 124:	ab c0       	rjmp	.+342    	; 0x27c <DIO_u8SetPinValue+0x210>
				case DIO_u8PORTC : SET_BIT(PORTC, Copy_u8Pin); break;
 126:	a5 e3       	ldi	r26, 0x35	; 53
 128:	b0 e0       	ldi	r27, 0x00	; 0
 12a:	e5 e3       	ldi	r30, 0x35	; 53
 12c:	f0 e0       	ldi	r31, 0x00	; 0
 12e:	80 81       	ld	r24, Z
 130:	48 2f       	mov	r20, r24
 132:	8b 81       	ldd	r24, Y+3	; 0x03
 134:	28 2f       	mov	r18, r24
 136:	30 e0       	ldi	r19, 0x00	; 0
 138:	81 e0       	ldi	r24, 0x01	; 1
 13a:	90 e0       	ldi	r25, 0x00	; 0
 13c:	02 2e       	mov	r0, r18
 13e:	02 c0       	rjmp	.+4      	; 0x144 <DIO_u8SetPinValue+0xd8>
 140:	88 0f       	add	r24, r24
 142:	99 1f       	adc	r25, r25
 144:	0a 94       	dec	r0
 146:	e2 f7       	brpl	.-8      	; 0x140 <DIO_u8SetPinValue+0xd4>
 148:	84 2b       	or	r24, r20
 14a:	8c 93       	st	X, r24
 14c:	97 c0       	rjmp	.+302    	; 0x27c <DIO_u8SetPinValue+0x210>
				case DIO_u8PORTD : SET_BIT(PORTD, Copy_u8Pin); break;
 14e:	a2 e3       	ldi	r26, 0x32	; 50
 150:	b0 e0       	ldi	r27, 0x00	; 0
 152:	e2 e3       	ldi	r30, 0x32	; 50
 154:	f0 e0       	ldi	r31, 0x00	; 0
 156:	80 81       	ld	r24, Z
 158:	48 2f       	mov	r20, r24
 15a:	8b 81       	ldd	r24, Y+3	; 0x03
 15c:	28 2f       	mov	r18, r24
 15e:	30 e0       	ldi	r19, 0x00	; 0
 160:	81 e0       	ldi	r24, 0x01	; 1
 162:	90 e0       	ldi	r25, 0x00	; 0
 164:	02 2e       	mov	r0, r18
 166:	02 c0       	rjmp	.+4      	; 0x16c <DIO_u8SetPinValue+0x100>
 168:	88 0f       	add	r24, r24
 16a:	99 1f       	adc	r25, r25
 16c:	0a 94       	dec	r0
 16e:	e2 f7       	brpl	.-8      	; 0x168 <DIO_u8SetPinValue+0xfc>
 170:	84 2b       	or	r24, r20
 172:	8c 93       	st	X, r24
 174:	83 c0       	rjmp	.+262    	; 0x27c <DIO_u8SetPinValue+0x210>
				default : Local_u8ErrorState=1;
 176:	81 e0       	ldi	r24, 0x01	; 1
 178:	89 83       	std	Y+1, r24	; 0x01
 17a:	80 c0       	rjmp	.+256    	; 0x27c <DIO_u8SetPinValue+0x210>

			}
		}

		else if(Copy_u8Value==DIO_u8PIN_LOW)
 17c:	8c 81       	ldd	r24, Y+4	; 0x04
 17e:	88 23       	and	r24, r24
 180:	09 f0       	breq	.+2      	; 0x184 <DIO_u8SetPinValue+0x118>
 182:	77 c0       	rjmp	.+238    	; 0x272 <DIO_u8SetPinValue+0x206>
		{
			switch(Copy_u8Port)
 184:	8a 81       	ldd	r24, Y+2	; 0x02
 186:	28 2f       	mov	r18, r24
 188:	30 e0       	ldi	r19, 0x00	; 0
 18a:	3e 83       	std	Y+6, r19	; 0x06
 18c:	2d 83       	std	Y+5, r18	; 0x05
 18e:	8d 81       	ldd	r24, Y+5	; 0x05
 190:	9e 81       	ldd	r25, Y+6	; 0x06
 192:	81 30       	cpi	r24, 0x01	; 1
 194:	91 05       	cpc	r25, r1
 196:	59 f1       	breq	.+86     	; 0x1ee <DIO_u8SetPinValue+0x182>
 198:	2d 81       	ldd	r18, Y+5	; 0x05
 19a:	3e 81       	ldd	r19, Y+6	; 0x06
 19c:	22 30       	cpi	r18, 0x02	; 2
 19e:	31 05       	cpc	r19, r1
 1a0:	2c f4       	brge	.+10     	; 0x1ac <DIO_u8SetPinValue+0x140>
 1a2:	8d 81       	ldd	r24, Y+5	; 0x05
 1a4:	9e 81       	ldd	r25, Y+6	; 0x06
 1a6:	00 97       	sbiw	r24, 0x00	; 0
 1a8:	69 f0       	breq	.+26     	; 0x1c4 <DIO_u8SetPinValue+0x158>
 1aa:	60 c0       	rjmp	.+192    	; 0x26c <DIO_u8SetPinValue+0x200>
 1ac:	2d 81       	ldd	r18, Y+5	; 0x05
 1ae:	3e 81       	ldd	r19, Y+6	; 0x06
 1b0:	22 30       	cpi	r18, 0x02	; 2
 1b2:	31 05       	cpc	r19, r1
 1b4:	89 f1       	breq	.+98     	; 0x218 <DIO_u8SetPinValue+0x1ac>
 1b6:	8d 81       	ldd	r24, Y+5	; 0x05
 1b8:	9e 81       	ldd	r25, Y+6	; 0x06
 1ba:	83 30       	cpi	r24, 0x03	; 3
 1bc:	91 05       	cpc	r25, r1
 1be:	09 f4       	brne	.+2      	; 0x1c2 <DIO_u8SetPinValue+0x156>
 1c0:	40 c0       	rjmp	.+128    	; 0x242 <DIO_u8SetPinValue+0x1d6>
 1c2:	54 c0       	rjmp	.+168    	; 0x26c <DIO_u8SetPinValue+0x200>
			{
				case DIO_u8PORTA : CLR_BIT(PORTA, Copy_u8Pin); break;
 1c4:	ab e3       	ldi	r26, 0x3B	; 59
 1c6:	b0 e0       	ldi	r27, 0x00	; 0
 1c8:	eb e3       	ldi	r30, 0x3B	; 59
 1ca:	f0 e0       	ldi	r31, 0x00	; 0
 1cc:	80 81       	ld	r24, Z
 1ce:	48 2f       	mov	r20, r24
 1d0:	8b 81       	ldd	r24, Y+3	; 0x03
 1d2:	28 2f       	mov	r18, r24
 1d4:	30 e0       	ldi	r19, 0x00	; 0
 1d6:	81 e0       	ldi	r24, 0x01	; 1
 1d8:	90 e0       	ldi	r25, 0x00	; 0
 1da:	02 2e       	mov	r0, r18
 1dc:	02 c0       	rjmp	.+4      	; 0x1e2 <DIO_u8SetPinValue+0x176>
 1de:	88 0f       	add	r24, r24
 1e0:	99 1f       	adc	r25, r25
 1e2:	0a 94       	dec	r0
 1e4:	e2 f7       	brpl	.-8      	; 0x1de <DIO_u8SetPinValue+0x172>
 1e6:	80 95       	com	r24
 1e8:	84 23       	and	r24, r20
 1ea:	8c 93       	st	X, r24
 1ec:	47 c0       	rjmp	.+142    	; 0x27c <DIO_u8SetPinValue+0x210>
				case DIO_u8PORTB : CLR_BIT(PORTB, Copy_u8Pin); break;
 1ee:	a8 e3       	ldi	r26, 0x38	; 56
 1f0:	b0 e0       	ldi	r27, 0x00	; 0
 1f2:	e8 e3       	ldi	r30, 0x38	; 56
 1f4:	f0 e0       	ldi	r31, 0x00	; 0
 1f6:	80 81       	ld	r24, Z
 1f8:	48 2f       	mov	r20, r24
 1fa:	8b 81       	ldd	r24, Y+3	; 0x03
 1fc:	28 2f       	mov	r18, r24
 1fe:	30 e0       	ldi	r19, 0x00	; 0
 200:	81 e0       	ldi	r24, 0x01	; 1
 202:	90 e0       	ldi	r25, 0x00	; 0
 204:	02 2e       	mov	r0, r18
 206:	02 c0       	rjmp	.+4      	; 0x20c <DIO_u8SetPinValue+0x1a0>
 208:	88 0f       	add	r24, r24
 20a:	99 1f       	adc	r25, r25
 20c:	0a 94       	dec	r0
 20e:	e2 f7       	brpl	.-8      	; 0x208 <DIO_u8SetPinValue+0x19c>
 210:	80 95       	com	r24
 212:	84 23       	and	r24, r20
 214:	8c 93       	st	X, r24
 216:	32 c0       	rjmp	.+100    	; 0x27c <DIO_u8SetPinValue+0x210>
				case DIO_u8PORTC : CLR_BIT(PORTC, Copy_u8Pin); break;
 218:	a5 e3       	ldi	r26, 0x35	; 53
 21a:	b0 e0       	ldi	r27, 0x00	; 0
 21c:	e5 e3       	ldi	r30, 0x35	; 53
 21e:	f0 e0       	ldi	r31, 0x00	; 0
 220:	80 81       	ld	r24, Z
 222:	48 2f       	mov	r20, r24
 224:	8b 81       	ldd	r24, Y+3	; 0x03
 226:	28 2f       	mov	r18, r24
 228:	30 e0       	ldi	r19, 0x00	; 0
 22a:	81 e0       	ldi	r24, 0x01	; 1
 22c:	90 e0       	ldi	r25, 0x00	; 0
 22e:	02 2e       	mov	r0, r18
 230:	02 c0       	rjmp	.+4      	; 0x236 <DIO_u8SetPinValue+0x1ca>
 232:	88 0f       	add	r24, r24
 234:	99 1f       	adc	r25, r25
 236:	0a 94       	dec	r0
 238:	e2 f7       	brpl	.-8      	; 0x232 <DIO_u8SetPinValue+0x1c6>
 23a:	80 95       	com	r24
 23c:	84 23       	and	r24, r20
 23e:	8c 93       	st	X, r24
 240:	1d c0       	rjmp	.+58     	; 0x27c <DIO_u8SetPinValue+0x210>
				case DIO_u8PORTD : CLR_BIT(PORTD, Copy_u8Pin); break;
 242:	a2 e3       	ldi	r26, 0x32	; 50
 244:	b0 e0       	ldi	r27, 0x00	; 0
 246:	e2 e3       	ldi	r30, 0x32	; 50
 248:	f0 e0       	ldi	r31, 0x00	; 0
 24a:	80 81       	ld	r24, Z
 24c:	48 2f       	mov	r20, r24
 24e:	8b 81       	ldd	r24, Y+3	; 0x03
 250:	28 2f       	mov	r18, r24
 252:	30 e0       	ldi	r19, 0x00	; 0
 254:	81 e0       	ldi	r24, 0x01	; 1
 256:	90 e0       	ldi	r25, 0x00	; 0
 258:	02 2e       	mov	r0, r18
 25a:	02 c0       	rjmp	.+4      	; 0x260 <DIO_u8SetPinValue+0x1f4>
 25c:	88 0f       	add	r24, r24
 25e:	99 1f       	adc	r25, r25
 260:	0a 94       	dec	r0
 262:	e2 f7       	brpl	.-8      	; 0x25c <DIO_u8SetPinValue+0x1f0>
 264:	80 95       	com	r24
 266:	84 23       	and	r24, r20
 268:	8c 93       	st	X, r24
 26a:	08 c0       	rjmp	.+16     	; 0x27c <DIO_u8SetPinValue+0x210>
				default : Local_u8ErrorState=1;
 26c:	81 e0       	ldi	r24, 0x01	; 1
 26e:	89 83       	std	Y+1, r24	; 0x01
 270:	05 c0       	rjmp	.+10     	; 0x27c <DIO_u8SetPinValue+0x210>
			}
		}

		else
		{
			Local_u8ErrorState=1;
 272:	81 e0       	ldi	r24, 0x01	; 1
 274:	89 83       	std	Y+1, r24	; 0x01
 276:	02 c0       	rjmp	.+4      	; 0x27c <DIO_u8SetPinValue+0x210>
		}
	}
	else
	{
		Local_u8ErrorState=1;
 278:	81 e0       	ldi	r24, 0x01	; 1
 27a:	89 83       	std	Y+1, r24	; 0x01
	}

	return Local_u8ErrorState;
 27c:	89 81       	ldd	r24, Y+1	; 0x01
}
 27e:	28 96       	adiw	r28, 0x08	; 8
 280:	0f b6       	in	r0, 0x3f	; 63
 282:	f8 94       	cli
 284:	de bf       	out	0x3e, r29	; 62
 286:	0f be       	out	0x3f, r0	; 63
 288:	cd bf       	out	0x3d, r28	; 61
 28a:	cf 91       	pop	r28
 28c:	df 91       	pop	r29
 28e:	08 95       	ret

00000290 <DIO_u8SetPortValue>:




u8 DIO_u8SetPortValue(u8 Copy_u8Port, u8 Copy_u8Value)
{
 290:	df 93       	push	r29
 292:	cf 93       	push	r28
 294:	00 d0       	rcall	.+0      	; 0x296 <DIO_u8SetPortValue+0x6>
 296:	00 d0       	rcall	.+0      	; 0x298 <DIO_u8SetPortValue+0x8>
 298:	0f 92       	push	r0
 29a:	cd b7       	in	r28, 0x3d	; 61
 29c:	de b7       	in	r29, 0x3e	; 62
 29e:	8a 83       	std	Y+2, r24	; 0x02
 2a0:	6b 83       	std	Y+3, r22	; 0x03
	u8 Local_u8ErrorState=0;
 2a2:	19 82       	std	Y+1, r1	; 0x01
	switch(Copy_u8Port)
 2a4:	8a 81       	ldd	r24, Y+2	; 0x02
 2a6:	28 2f       	mov	r18, r24
 2a8:	30 e0       	ldi	r19, 0x00	; 0
 2aa:	3d 83       	std	Y+5, r19	; 0x05
 2ac:	2c 83       	std	Y+4, r18	; 0x04
 2ae:	8c 81       	ldd	r24, Y+4	; 0x04
 2b0:	9d 81       	ldd	r25, Y+5	; 0x05
 2b2:	81 30       	cpi	r24, 0x01	; 1
 2b4:	91 05       	cpc	r25, r1
 2b6:	d1 f0       	breq	.+52     	; 0x2ec <DIO_u8SetPortValue+0x5c>
 2b8:	2c 81       	ldd	r18, Y+4	; 0x04
 2ba:	3d 81       	ldd	r19, Y+5	; 0x05
 2bc:	22 30       	cpi	r18, 0x02	; 2
 2be:	31 05       	cpc	r19, r1
 2c0:	2c f4       	brge	.+10     	; 0x2cc <DIO_u8SetPortValue+0x3c>
 2c2:	8c 81       	ldd	r24, Y+4	; 0x04
 2c4:	9d 81       	ldd	r25, Y+5	; 0x05
 2c6:	00 97       	sbiw	r24, 0x00	; 0
 2c8:	61 f0       	breq	.+24     	; 0x2e2 <DIO_u8SetPortValue+0x52>
 2ca:	1f c0       	rjmp	.+62     	; 0x30a <DIO_u8SetPortValue+0x7a>
 2cc:	2c 81       	ldd	r18, Y+4	; 0x04
 2ce:	3d 81       	ldd	r19, Y+5	; 0x05
 2d0:	22 30       	cpi	r18, 0x02	; 2
 2d2:	31 05       	cpc	r19, r1
 2d4:	81 f0       	breq	.+32     	; 0x2f6 <DIO_u8SetPortValue+0x66>
 2d6:	8c 81       	ldd	r24, Y+4	; 0x04
 2d8:	9d 81       	ldd	r25, Y+5	; 0x05
 2da:	83 30       	cpi	r24, 0x03	; 3
 2dc:	91 05       	cpc	r25, r1
 2de:	81 f0       	breq	.+32     	; 0x300 <DIO_u8SetPortValue+0x70>
 2e0:	14 c0       	rjmp	.+40     	; 0x30a <DIO_u8SetPortValue+0x7a>
	{
		case DIO_u8PORTA : PORTA = Copy_u8Value; break;
 2e2:	eb e3       	ldi	r30, 0x3B	; 59
 2e4:	f0 e0       	ldi	r31, 0x00	; 0
 2e6:	8b 81       	ldd	r24, Y+3	; 0x03
 2e8:	80 83       	st	Z, r24
 2ea:	11 c0       	rjmp	.+34     	; 0x30e <DIO_u8SetPortValue+0x7e>
		case DIO_u8PORTB : PORTB = Copy_u8Value; break;
 2ec:	e8 e3       	ldi	r30, 0x38	; 56
 2ee:	f0 e0       	ldi	r31, 0x00	; 0
 2f0:	8b 81       	ldd	r24, Y+3	; 0x03
 2f2:	80 83       	st	Z, r24
 2f4:	0c c0       	rjmp	.+24     	; 0x30e <DIO_u8SetPortValue+0x7e>
		case DIO_u8PORTC : PORTC = Copy_u8Value; break;
 2f6:	e5 e3       	ldi	r30, 0x35	; 53
 2f8:	f0 e0       	ldi	r31, 0x00	; 0
 2fa:	8b 81       	ldd	r24, Y+3	; 0x03
 2fc:	80 83       	st	Z, r24
 2fe:	07 c0       	rjmp	.+14     	; 0x30e <DIO_u8SetPortValue+0x7e>
		case DIO_u8PORTD : PORTD = Copy_u8Value; break;
 300:	e2 e3       	ldi	r30, 0x32	; 50
 302:	f0 e0       	ldi	r31, 0x00	; 0
 304:	8b 81       	ldd	r24, Y+3	; 0x03
 306:	80 83       	st	Z, r24
 308:	02 c0       	rjmp	.+4      	; 0x30e <DIO_u8SetPortValue+0x7e>
		default : Local_u8ErrorState=1;
 30a:	81 e0       	ldi	r24, 0x01	; 1
 30c:	89 83       	std	Y+1, r24	; 0x01
	}

	return Local_u8ErrorState;
 30e:	89 81       	ldd	r24, Y+1	; 0x01
}
 310:	0f 90       	pop	r0
 312:	0f 90       	pop	r0
 314:	0f 90       	pop	r0
 316:	0f 90       	pop	r0
 318:	0f 90       	pop	r0
 31a:	cf 91       	pop	r28
 31c:	df 91       	pop	r29
 31e:	08 95       	ret

00000320 <DIO_u8GetPinValue>:


u8 DIO_u8GetPinValue(u8 Copy_u8Port, u8 Copy_u8Pin, u8* Copy_pu8Value)
{
 320:	df 93       	push	r29
 322:	cf 93       	push	r28
 324:	cd b7       	in	r28, 0x3d	; 61
 326:	de b7       	in	r29, 0x3e	; 62
 328:	27 97       	sbiw	r28, 0x07	; 7
 32a:	0f b6       	in	r0, 0x3f	; 63
 32c:	f8 94       	cli
 32e:	de bf       	out	0x3e, r29	; 62
 330:	0f be       	out	0x3f, r0	; 63
 332:	cd bf       	out	0x3d, r28	; 61
 334:	8a 83       	std	Y+2, r24	; 0x02
 336:	6b 83       	std	Y+3, r22	; 0x03
 338:	5d 83       	std	Y+5, r21	; 0x05
 33a:	4c 83       	std	Y+4, r20	; 0x04
	u8 Local_u8ErrorState=0;
 33c:	19 82       	std	Y+1, r1	; 0x01
	if((Copy_pu8Value != NULL) && (Copy_u8Pin<=DIO_u8PIN7))
 33e:	8c 81       	ldd	r24, Y+4	; 0x04
 340:	9d 81       	ldd	r25, Y+5	; 0x05
 342:	00 97       	sbiw	r24, 0x00	; 0
 344:	09 f4       	brne	.+2      	; 0x348 <DIO_u8GetPinValue+0x28>
 346:	78 c0       	rjmp	.+240    	; 0x438 <DIO_u8GetPinValue+0x118>
 348:	8b 81       	ldd	r24, Y+3	; 0x03
 34a:	88 30       	cpi	r24, 0x08	; 8
 34c:	08 f0       	brcs	.+2      	; 0x350 <DIO_u8GetPinValue+0x30>
 34e:	74 c0       	rjmp	.+232    	; 0x438 <DIO_u8GetPinValue+0x118>
	{
		switch(Copy_u8Port)
 350:	8a 81       	ldd	r24, Y+2	; 0x02
 352:	28 2f       	mov	r18, r24
 354:	30 e0       	ldi	r19, 0x00	; 0
 356:	3f 83       	std	Y+7, r19	; 0x07
 358:	2e 83       	std	Y+6, r18	; 0x06
 35a:	4e 81       	ldd	r20, Y+6	; 0x06
 35c:	5f 81       	ldd	r21, Y+7	; 0x07
 35e:	41 30       	cpi	r20, 0x01	; 1
 360:	51 05       	cpc	r21, r1
 362:	59 f1       	breq	.+86     	; 0x3ba <DIO_u8GetPinValue+0x9a>
 364:	8e 81       	ldd	r24, Y+6	; 0x06
 366:	9f 81       	ldd	r25, Y+7	; 0x07
 368:	82 30       	cpi	r24, 0x02	; 2
 36a:	91 05       	cpc	r25, r1
 36c:	34 f4       	brge	.+12     	; 0x37a <DIO_u8GetPinValue+0x5a>
 36e:	2e 81       	ldd	r18, Y+6	; 0x06
 370:	3f 81       	ldd	r19, Y+7	; 0x07
 372:	21 15       	cp	r18, r1
 374:	31 05       	cpc	r19, r1
 376:	69 f0       	breq	.+26     	; 0x392 <DIO_u8GetPinValue+0x72>
 378:	5c c0       	rjmp	.+184    	; 0x432 <DIO_u8GetPinValue+0x112>
 37a:	4e 81       	ldd	r20, Y+6	; 0x06
 37c:	5f 81       	ldd	r21, Y+7	; 0x07
 37e:	42 30       	cpi	r20, 0x02	; 2
 380:	51 05       	cpc	r21, r1
 382:	79 f1       	breq	.+94     	; 0x3e2 <DIO_u8GetPinValue+0xc2>
 384:	8e 81       	ldd	r24, Y+6	; 0x06
 386:	9f 81       	ldd	r25, Y+7	; 0x07
 388:	83 30       	cpi	r24, 0x03	; 3
 38a:	91 05       	cpc	r25, r1
 38c:	09 f4       	brne	.+2      	; 0x390 <DIO_u8GetPinValue+0x70>
 38e:	3d c0       	rjmp	.+122    	; 0x40a <DIO_u8GetPinValue+0xea>
 390:	50 c0       	rjmp	.+160    	; 0x432 <DIO_u8GetPinValue+0x112>
		{
			case DIO_u8PORTA : *Copy_pu8Value = GET_BIT(PINA , Copy_u8Pin); break;
 392:	e9 e3       	ldi	r30, 0x39	; 57
 394:	f0 e0       	ldi	r31, 0x00	; 0
 396:	80 81       	ld	r24, Z
 398:	28 2f       	mov	r18, r24
 39a:	30 e0       	ldi	r19, 0x00	; 0
 39c:	8b 81       	ldd	r24, Y+3	; 0x03
 39e:	88 2f       	mov	r24, r24
 3a0:	90 e0       	ldi	r25, 0x00	; 0
 3a2:	a9 01       	movw	r20, r18
 3a4:	02 c0       	rjmp	.+4      	; 0x3aa <DIO_u8GetPinValue+0x8a>
 3a6:	55 95       	asr	r21
 3a8:	47 95       	ror	r20
 3aa:	8a 95       	dec	r24
 3ac:	e2 f7       	brpl	.-8      	; 0x3a6 <DIO_u8GetPinValue+0x86>
 3ae:	ca 01       	movw	r24, r20
 3b0:	81 70       	andi	r24, 0x01	; 1
 3b2:	ec 81       	ldd	r30, Y+4	; 0x04
 3b4:	fd 81       	ldd	r31, Y+5	; 0x05
 3b6:	80 83       	st	Z, r24
 3b8:	41 c0       	rjmp	.+130    	; 0x43c <DIO_u8GetPinValue+0x11c>
			case DIO_u8PORTB : *Copy_pu8Value = GET_BIT(PINB , Copy_u8Pin); break;
 3ba:	e6 e3       	ldi	r30, 0x36	; 54
 3bc:	f0 e0       	ldi	r31, 0x00	; 0
 3be:	80 81       	ld	r24, Z
 3c0:	28 2f       	mov	r18, r24
 3c2:	30 e0       	ldi	r19, 0x00	; 0
 3c4:	8b 81       	ldd	r24, Y+3	; 0x03
 3c6:	88 2f       	mov	r24, r24
 3c8:	90 e0       	ldi	r25, 0x00	; 0
 3ca:	a9 01       	movw	r20, r18
 3cc:	02 c0       	rjmp	.+4      	; 0x3d2 <DIO_u8GetPinValue+0xb2>
 3ce:	55 95       	asr	r21
 3d0:	47 95       	ror	r20
 3d2:	8a 95       	dec	r24
 3d4:	e2 f7       	brpl	.-8      	; 0x3ce <DIO_u8GetPinValue+0xae>
 3d6:	ca 01       	movw	r24, r20
 3d8:	81 70       	andi	r24, 0x01	; 1
 3da:	ec 81       	ldd	r30, Y+4	; 0x04
 3dc:	fd 81       	ldd	r31, Y+5	; 0x05
 3de:	80 83       	st	Z, r24
 3e0:	2d c0       	rjmp	.+90     	; 0x43c <DIO_u8GetPinValue+0x11c>
			case DIO_u8PORTC : *Copy_pu8Value = GET_BIT(PINC , Copy_u8Pin); break;
 3e2:	e3 e3       	ldi	r30, 0x33	; 51
 3e4:	f0 e0       	ldi	r31, 0x00	; 0
 3e6:	80 81       	ld	r24, Z
 3e8:	28 2f       	mov	r18, r24
 3ea:	30 e0       	ldi	r19, 0x00	; 0
 3ec:	8b 81       	ldd	r24, Y+3	; 0x03
 3ee:	88 2f       	mov	r24, r24
 3f0:	90 e0       	ldi	r25, 0x00	; 0
 3f2:	a9 01       	movw	r20, r18
 3f4:	02 c0       	rjmp	.+4      	; 0x3fa <DIO_u8GetPinValue+0xda>
 3f6:	55 95       	asr	r21
 3f8:	47 95       	ror	r20
 3fa:	8a 95       	dec	r24
 3fc:	e2 f7       	brpl	.-8      	; 0x3f6 <DIO_u8GetPinValue+0xd6>
 3fe:	ca 01       	movw	r24, r20
 400:	81 70       	andi	r24, 0x01	; 1
 402:	ec 81       	ldd	r30, Y+4	; 0x04
 404:	fd 81       	ldd	r31, Y+5	; 0x05
 406:	80 83       	st	Z, r24
 408:	19 c0       	rjmp	.+50     	; 0x43c <DIO_u8GetPinValue+0x11c>
			case DIO_u8PORTD : *Copy_pu8Value = GET_BIT(PIND , Copy_u8Pin); break;
 40a:	e0 e3       	ldi	r30, 0x30	; 48
 40c:	f0 e0       	ldi	r31, 0x00	; 0
 40e:	80 81       	ld	r24, Z
 410:	28 2f       	mov	r18, r24
 412:	30 e0       	ldi	r19, 0x00	; 0
 414:	8b 81       	ldd	r24, Y+3	; 0x03
 416:	88 2f       	mov	r24, r24
 418:	90 e0       	ldi	r25, 0x00	; 0
 41a:	a9 01       	movw	r20, r18
 41c:	02 c0       	rjmp	.+4      	; 0x422 <DIO_u8GetPinValue+0x102>
 41e:	55 95       	asr	r21
 420:	47 95       	ror	r20
 422:	8a 95       	dec	r24
 424:	e2 f7       	brpl	.-8      	; 0x41e <DIO_u8GetPinValue+0xfe>
 426:	ca 01       	movw	r24, r20
 428:	81 70       	andi	r24, 0x01	; 1
 42a:	ec 81       	ldd	r30, Y+4	; 0x04
 42c:	fd 81       	ldd	r31, Y+5	; 0x05
 42e:	80 83       	st	Z, r24
 430:	05 c0       	rjmp	.+10     	; 0x43c <DIO_u8GetPinValue+0x11c>
			default : Local_u8ErrorState=1;
 432:	81 e0       	ldi	r24, 0x01	; 1
 434:	89 83       	std	Y+1, r24	; 0x01
 436:	02 c0       	rjmp	.+4      	; 0x43c <DIO_u8GetPinValue+0x11c>
		}
	}
	else
	{
		Local_u8ErrorState=1;
 438:	81 e0       	ldi	r24, 0x01	; 1
 43a:	89 83       	std	Y+1, r24	; 0x01
	}

	return Local_u8ErrorState;
 43c:	89 81       	ldd	r24, Y+1	; 0x01
}
 43e:	27 96       	adiw	r28, 0x07	; 7
 440:	0f b6       	in	r0, 0x3f	; 63
 442:	f8 94       	cli
 444:	de bf       	out	0x3e, r29	; 62
 446:	0f be       	out	0x3f, r0	; 63
 448:	cd bf       	out	0x3d, r28	; 61
 44a:	cf 91       	pop	r28
 44c:	df 91       	pop	r29
 44e:	08 95       	ret

00000450 <GIE_voidEnable>:

#include "GIE_interface.h"
#include "GIE_register.h"

void GIE_voidEnable(void)
{
 450:	df 93       	push	r29
 452:	cf 93       	push	r28
 454:	cd b7       	in	r28, 0x3d	; 61
 456:	de b7       	in	r29, 0x3e	; 62
	SET_BIT(SREG ,SREG_I);
 458:	af e5       	ldi	r26, 0x5F	; 95
 45a:	b0 e0       	ldi	r27, 0x00	; 0
 45c:	ef e5       	ldi	r30, 0x5F	; 95
 45e:	f0 e0       	ldi	r31, 0x00	; 0
 460:	80 81       	ld	r24, Z
 462:	80 68       	ori	r24, 0x80	; 128
 464:	8c 93       	st	X, r24
}
 466:	cf 91       	pop	r28
 468:	df 91       	pop	r29
 46a:	08 95       	ret

0000046c <GIE_voidDisable>:

void GIE_voidDisable(void)
{
 46c:	df 93       	push	r29
 46e:	cf 93       	push	r28
 470:	cd b7       	in	r28, 0x3d	; 61
 472:	de b7       	in	r29, 0x3e	; 62
	CLR_BIT(SREG ,SREG_I);
 474:	af e5       	ldi	r26, 0x5F	; 95
 476:	b0 e0       	ldi	r27, 0x00	; 0
 478:	ef e5       	ldi	r30, 0x5F	; 95
 47a:	f0 e0       	ldi	r31, 0x00	; 0
 47c:	80 81       	ld	r24, Z
 47e:	8f 77       	andi	r24, 0x7F	; 127
 480:	8c 93       	st	X, r24
}
 482:	cf 91       	pop	r28
 484:	df 91       	pop	r29
 486:	08 95       	ret

00000488 <PORT_voidInIt>:
#include "PORT_private.h"
#include "PORT_interface.h"
#include "PORT_register.h"

void PORT_voidInIt(void)
{
 488:	df 93       	push	r29
 48a:	cf 93       	push	r28
 48c:	cd b7       	in	r28, 0x3d	; 61
 48e:	de b7       	in	r29, 0x3e	; 62
    DDRA = PORTA_DIR;
 490:	ea e3       	ldi	r30, 0x3A	; 58
 492:	f0 e0       	ldi	r31, 0x00	; 0
 494:	81 e8       	ldi	r24, 0x81	; 129
 496:	80 83       	st	Z, r24
    DDRB = PORTB_DIR;
 498:	e7 e3       	ldi	r30, 0x37	; 55
 49a:	f0 e0       	ldi	r31, 0x00	; 0
 49c:	10 82       	st	Z, r1
    DDRC = PORTC_DIR;
 49e:	e4 e3       	ldi	r30, 0x34	; 52
 4a0:	f0 e0       	ldi	r31, 0x00	; 0
 4a2:	81 e0       	ldi	r24, 0x01	; 1
 4a4:	80 83       	st	Z, r24
    DDRD = PORTD_DIR;
 4a6:	e1 e3       	ldi	r30, 0x31	; 49
 4a8:	f0 e0       	ldi	r31, 0x00	; 0
 4aa:	10 82       	st	Z, r1

    PORTA = PORTA_INITIAL_VALUE;
 4ac:	eb e3       	ldi	r30, 0x3B	; 59
 4ae:	f0 e0       	ldi	r31, 0x00	; 0
 4b0:	10 82       	st	Z, r1
    PORTB = PORTB_INITIAL_VALUE;
 4b2:	e8 e3       	ldi	r30, 0x38	; 56
 4b4:	f0 e0       	ldi	r31, 0x00	; 0
 4b6:	10 82       	st	Z, r1
    PORTC = PORTC_INITIAL_VALUE;
 4b8:	e5 e3       	ldi	r30, 0x35	; 53
 4ba:	f0 e0       	ldi	r31, 0x00	; 0
 4bc:	10 82       	st	Z, r1
    PORTD = PORTD_INITIAL_VALUE;
 4be:	e2 e3       	ldi	r30, 0x32	; 50
 4c0:	f0 e0       	ldi	r31, 0x00	; 0
 4c2:	10 82       	st	Z, r1
}
 4c4:	cf 91       	pop	r28
 4c6:	df 91       	pop	r29
 4c8:	08 95       	ret

000004ca <main>:
#include "DIO_interface.h"
#include "GIE_interface.h"
#include "TWI_interface.h"

void main()
{
 4ca:	af 92       	push	r10
 4cc:	bf 92       	push	r11
 4ce:	cf 92       	push	r12
 4d0:	df 92       	push	r13
 4d2:	ef 92       	push	r14
 4d4:	ff 92       	push	r15
 4d6:	0f 93       	push	r16
 4d8:	1f 93       	push	r17
 4da:	df 93       	push	r29
 4dc:	cf 93       	push	r28
 4de:	cd b7       	in	r28, 0x3d	; 61
 4e0:	de b7       	in	r29, 0x3e	; 62
 4e2:	e3 97       	sbiw	r28, 0x33	; 51
 4e4:	0f b6       	in	r0, 0x3f	; 63
 4e6:	f8 94       	cli
 4e8:	de bf       	out	0x3e, r29	; 62
 4ea:	0f be       	out	0x3f, r0	; 63
 4ec:	cd bf       	out	0x3d, r28	; 61
	PORT_voidInIt();
 4ee:	0e 94 44 02 	call	0x488	; 0x488 <PORT_voidInIt>
	GIE_voidEnable();
 4f2:	0e 94 28 02 	call	0x450	; 0x450 <GIE_voidEnable>
	TWI_voidInitMaster(0);
 4f6:	80 e0       	ldi	r24, 0x00	; 0
 4f8:	0e 94 aa 03 	call	0x754	; 0x754 <TWI_voidInitMaster>
	long long cnt=0;
 4fc:	19 82       	std	Y+1, r1	; 0x01
 4fe:	1a 82       	std	Y+2, r1	; 0x02
 500:	1b 82       	std	Y+3, r1	; 0x03
 502:	1c 82       	std	Y+4, r1	; 0x04
 504:	1d 82       	std	Y+5, r1	; 0x05
 506:	1e 82       	std	Y+6, r1	; 0x06
 508:	1f 82       	std	Y+7, r1	; 0x07
 50a:	18 86       	std	Y+8, r1	; 0x08

	while(1)
	{
		TWI_SendStartCondition();
 50c:	0e 94 ee 03 	call	0x7dc	; 0x7dc <TWI_SendStartCondition>
		TWI_SendSlaveAddressWithWrite(50);
 510:	82 e3       	ldi	r24, 0x32	; 50
 512:	0e 94 42 04 	call	0x884	; 0x884 <TWI_SendSlaveAddressWithWrite>
		TWI_MasterWriteDataByte(255);
 516:	8f ef       	ldi	r24, 0xFF	; 255
 518:	0e 94 b2 04 	call	0x964	; 0x964 <TWI_MasterWriteDataByte>
		DIO_u8SetPinValue(DIO_u8PORTA,DIO_u8PIN0,DIO_u8PIN_HIGH);
 51c:	80 e0       	ldi	r24, 0x00	; 0
 51e:	60 e0       	ldi	r22, 0x00	; 0
 520:	41 e0       	ldi	r20, 0x01	; 1
 522:	0e 94 36 00 	call	0x6c	; 0x6c <DIO_u8SetPinValue>
		TWI_SendStopCondition();
 526:	0e 94 7a 05 	call	0xaf4	; 0xaf4 <TWI_SendStopCondition>
		if(cnt%2==0){
 52a:	29 81       	ldd	r18, Y+1	; 0x01
 52c:	3a 81       	ldd	r19, Y+2	; 0x02
 52e:	4b 81       	ldd	r20, Y+3	; 0x03
 530:	5c 81       	ldd	r21, Y+4	; 0x04
 532:	6d 81       	ldd	r22, Y+5	; 0x05
 534:	7e 81       	ldd	r23, Y+6	; 0x06
 536:	8f 81       	ldd	r24, Y+7	; 0x07
 538:	98 85       	ldd	r25, Y+8	; 0x08
 53a:	aa 24       	eor	r10, r10
 53c:	a3 94       	inc	r10
 53e:	a2 22       	and	r10, r18
 540:	bb 24       	eor	r11, r11
 542:	b3 22       	and	r11, r19
 544:	cc 24       	eor	r12, r12
 546:	c4 22       	and	r12, r20
 548:	dd 24       	eor	r13, r13
 54a:	d5 22       	and	r13, r21
 54c:	ee 24       	eor	r14, r14
 54e:	e6 22       	and	r14, r22
 550:	ff 24       	eor	r15, r15
 552:	f7 22       	and	r15, r23
 554:	08 2f       	mov	r16, r24
 556:	00 70       	andi	r16, 0x00	; 0
 558:	19 2f       	mov	r17, r25
 55a:	10 70       	andi	r17, 0x00	; 0
 55c:	8a 2d       	mov	r24, r10
 55e:	8b 29       	or	r24, r11
 560:	8c 29       	or	r24, r12
 562:	8d 29       	or	r24, r13
 564:	8e 29       	or	r24, r14
 566:	8f 29       	or	r24, r15
 568:	80 2b       	or	r24, r16
 56a:	81 2b       	or	r24, r17
 56c:	88 23       	and	r24, r24
 56e:	31 f4       	brne	.+12     	; 0x57c <main+0xb2>
			DIO_u8SetPinValue(DIO_u8PORTA,DIO_u8PIN7,DIO_u8PIN_HIGH);
 570:	80 e0       	ldi	r24, 0x00	; 0
 572:	67 e0       	ldi	r22, 0x07	; 7
 574:	41 e0       	ldi	r20, 0x01	; 1
 576:	0e 94 36 00 	call	0x6c	; 0x6c <DIO_u8SetPinValue>
 57a:	05 c0       	rjmp	.+10     	; 0x586 <main+0xbc>
		}
		else{
			DIO_u8SetPinValue(DIO_u8PORTA,DIO_u8PIN7,DIO_u8PIN_LOW);
 57c:	80 e0       	ldi	r24, 0x00	; 0
 57e:	67 e0       	ldi	r22, 0x07	; 7
 580:	40 e0       	ldi	r20, 0x00	; 0
 582:	0e 94 36 00 	call	0x6c	; 0x6c <DIO_u8SetPinValue>
		}
		TWI_SendRepeatedStart();
 586:	0e 94 18 04 	call	0x830	; 0x830 <TWI_SendRepeatedStart>
		cnt++;
 58a:	89 81       	ldd	r24, Y+1	; 0x01
 58c:	89 87       	std	Y+9, r24	; 0x09
 58e:	9a 81       	ldd	r25, Y+2	; 0x02
 590:	9a 87       	std	Y+10, r25	; 0x0a
 592:	8b 81       	ldd	r24, Y+3	; 0x03
 594:	8b 87       	std	Y+11, r24	; 0x0b
 596:	9c 81       	ldd	r25, Y+4	; 0x04
 598:	9c 87       	std	Y+12, r25	; 0x0c
 59a:	8d 81       	ldd	r24, Y+5	; 0x05
 59c:	8d 87       	std	Y+13, r24	; 0x0d
 59e:	9e 81       	ldd	r25, Y+6	; 0x06
 5a0:	9e 87       	std	Y+14, r25	; 0x0e
 5a2:	8f 81       	ldd	r24, Y+7	; 0x07
 5a4:	8f 87       	std	Y+15, r24	; 0x0f
 5a6:	98 85       	ldd	r25, Y+8	; 0x08
 5a8:	98 8b       	std	Y+16, r25	; 0x10
 5aa:	81 e0       	ldi	r24, 0x01	; 1
 5ac:	89 8b       	std	Y+17, r24	; 0x11
 5ae:	1a 8a       	std	Y+18, r1	; 0x12
 5b0:	1b 8a       	std	Y+19, r1	; 0x13
 5b2:	1c 8a       	std	Y+20, r1	; 0x14
 5b4:	1d 8a       	std	Y+21, r1	; 0x15
 5b6:	1e 8a       	std	Y+22, r1	; 0x16
 5b8:	1f 8a       	std	Y+23, r1	; 0x17
 5ba:	18 8e       	std	Y+24, r1	; 0x18
 5bc:	99 85       	ldd	r25, Y+9	; 0x09
 5be:	89 89       	ldd	r24, Y+17	; 0x11
 5c0:	98 0f       	add	r25, r24
 5c2:	99 8f       	std	Y+25, r25	; 0x19
 5c4:	91 e0       	ldi	r25, 0x01	; 1
 5c6:	99 a3       	std	Y+33, r25	; 0x21
 5c8:	89 8d       	ldd	r24, Y+25	; 0x19
 5ca:	99 85       	ldd	r25, Y+9	; 0x09
 5cc:	89 17       	cp	r24, r25
 5ce:	08 f0       	brcs	.+2      	; 0x5d2 <main+0x108>
 5d0:	19 a2       	std	Y+33, r1	; 0x21
 5d2:	8a 85       	ldd	r24, Y+10	; 0x0a
 5d4:	9a 89       	ldd	r25, Y+18	; 0x12
 5d6:	89 0f       	add	r24, r25
 5d8:	8a 8f       	std	Y+26, r24	; 0x1a
 5da:	81 e0       	ldi	r24, 0x01	; 1
 5dc:	8a a3       	std	Y+34, r24	; 0x22
 5de:	9a 8d       	ldd	r25, Y+26	; 0x1a
 5e0:	8a 85       	ldd	r24, Y+10	; 0x0a
 5e2:	98 17       	cp	r25, r24
 5e4:	08 f0       	brcs	.+2      	; 0x5e8 <main+0x11e>
 5e6:	1a a2       	std	Y+34, r1	; 0x22
 5e8:	99 a1       	ldd	r25, Y+33	; 0x21
 5ea:	8a 8d       	ldd	r24, Y+26	; 0x1a
 5ec:	98 0f       	add	r25, r24
 5ee:	9b a3       	std	Y+35, r25	; 0x23
 5f0:	91 e0       	ldi	r25, 0x01	; 1
 5f2:	9c a3       	std	Y+36, r25	; 0x24
 5f4:	8b a1       	ldd	r24, Y+35	; 0x23
 5f6:	9a 8d       	ldd	r25, Y+26	; 0x1a
 5f8:	89 17       	cp	r24, r25
 5fa:	08 f0       	brcs	.+2      	; 0x5fe <main+0x134>
 5fc:	1c a2       	std	Y+36, r1	; 0x24
 5fe:	8a a1       	ldd	r24, Y+34	; 0x22
 600:	9c a1       	ldd	r25, Y+36	; 0x24
 602:	89 2b       	or	r24, r25
 604:	8a a3       	std	Y+34, r24	; 0x22
 606:	8b a1       	ldd	r24, Y+35	; 0x23
 608:	8a 8f       	std	Y+26, r24	; 0x1a
 60a:	9b 85       	ldd	r25, Y+11	; 0x0b
 60c:	8b 89       	ldd	r24, Y+19	; 0x13
 60e:	98 0f       	add	r25, r24
 610:	9b 8f       	std	Y+27, r25	; 0x1b
 612:	91 e0       	ldi	r25, 0x01	; 1
 614:	9d a3       	std	Y+37, r25	; 0x25
 616:	8b 8d       	ldd	r24, Y+27	; 0x1b
 618:	9b 85       	ldd	r25, Y+11	; 0x0b
 61a:	89 17       	cp	r24, r25
 61c:	08 f0       	brcs	.+2      	; 0x620 <main+0x156>
 61e:	1d a2       	std	Y+37, r1	; 0x25
 620:	8a a1       	ldd	r24, Y+34	; 0x22
 622:	9b 8d       	ldd	r25, Y+27	; 0x1b
 624:	89 0f       	add	r24, r25
 626:	8e a3       	std	Y+38, r24	; 0x26
 628:	81 e0       	ldi	r24, 0x01	; 1
 62a:	8f a3       	std	Y+39, r24	; 0x27
 62c:	9e a1       	ldd	r25, Y+38	; 0x26
 62e:	8b 8d       	ldd	r24, Y+27	; 0x1b
 630:	98 17       	cp	r25, r24
 632:	08 f0       	brcs	.+2      	; 0x636 <main+0x16c>
 634:	1f a2       	std	Y+39, r1	; 0x27
 636:	9d a1       	ldd	r25, Y+37	; 0x25
 638:	8f a1       	ldd	r24, Y+39	; 0x27
 63a:	98 2b       	or	r25, r24
 63c:	9d a3       	std	Y+37, r25	; 0x25
 63e:	9e a1       	ldd	r25, Y+38	; 0x26
 640:	9b 8f       	std	Y+27, r25	; 0x1b
 642:	8c 85       	ldd	r24, Y+12	; 0x0c
 644:	9c 89       	ldd	r25, Y+20	; 0x14
 646:	89 0f       	add	r24, r25
 648:	8c 8f       	std	Y+28, r24	; 0x1c
 64a:	81 e0       	ldi	r24, 0x01	; 1
 64c:	88 a7       	std	Y+40, r24	; 0x28
 64e:	9c 8d       	ldd	r25, Y+28	; 0x1c
 650:	8c 85       	ldd	r24, Y+12	; 0x0c
 652:	98 17       	cp	r25, r24
 654:	08 f0       	brcs	.+2      	; 0x658 <main+0x18e>
 656:	18 a6       	std	Y+40, r1	; 0x28
 658:	9d a1       	ldd	r25, Y+37	; 0x25
 65a:	8c 8d       	ldd	r24, Y+28	; 0x1c
 65c:	98 0f       	add	r25, r24
 65e:	99 a7       	std	Y+41, r25	; 0x29
 660:	91 e0       	ldi	r25, 0x01	; 1
 662:	9a a7       	std	Y+42, r25	; 0x2a
 664:	89 a5       	ldd	r24, Y+41	; 0x29
 666:	9c 8d       	ldd	r25, Y+28	; 0x1c
 668:	89 17       	cp	r24, r25
 66a:	08 f0       	brcs	.+2      	; 0x66e <main+0x1a4>
 66c:	1a a6       	std	Y+42, r1	; 0x2a
 66e:	88 a5       	ldd	r24, Y+40	; 0x28
 670:	9a a5       	ldd	r25, Y+42	; 0x2a
 672:	89 2b       	or	r24, r25
 674:	88 a7       	std	Y+40, r24	; 0x28
 676:	89 a5       	ldd	r24, Y+41	; 0x29
 678:	8c 8f       	std	Y+28, r24	; 0x1c
 67a:	9d 85       	ldd	r25, Y+13	; 0x0d
 67c:	8d 89       	ldd	r24, Y+21	; 0x15
 67e:	98 0f       	add	r25, r24
 680:	9d 8f       	std	Y+29, r25	; 0x1d
 682:	91 e0       	ldi	r25, 0x01	; 1
 684:	9b a7       	std	Y+43, r25	; 0x2b
 686:	8d 8d       	ldd	r24, Y+29	; 0x1d
 688:	9d 85       	ldd	r25, Y+13	; 0x0d
 68a:	89 17       	cp	r24, r25
 68c:	08 f0       	brcs	.+2      	; 0x690 <main+0x1c6>
 68e:	1b a6       	std	Y+43, r1	; 0x2b
 690:	88 a5       	ldd	r24, Y+40	; 0x28
 692:	9d 8d       	ldd	r25, Y+29	; 0x1d
 694:	89 0f       	add	r24, r25
 696:	8c a7       	std	Y+44, r24	; 0x2c
 698:	81 e0       	ldi	r24, 0x01	; 1
 69a:	8d a7       	std	Y+45, r24	; 0x2d
 69c:	9c a5       	ldd	r25, Y+44	; 0x2c
 69e:	8d 8d       	ldd	r24, Y+29	; 0x1d
 6a0:	98 17       	cp	r25, r24
 6a2:	08 f0       	brcs	.+2      	; 0x6a6 <main+0x1dc>
 6a4:	1d a6       	std	Y+45, r1	; 0x2d
 6a6:	9b a5       	ldd	r25, Y+43	; 0x2b
 6a8:	8d a5       	ldd	r24, Y+45	; 0x2d
 6aa:	98 2b       	or	r25, r24
 6ac:	9b a7       	std	Y+43, r25	; 0x2b
 6ae:	9c a5       	ldd	r25, Y+44	; 0x2c
 6b0:	9d 8f       	std	Y+29, r25	; 0x1d
 6b2:	8e 85       	ldd	r24, Y+14	; 0x0e
 6b4:	9e 89       	ldd	r25, Y+22	; 0x16
 6b6:	89 0f       	add	r24, r25
 6b8:	8e 8f       	std	Y+30, r24	; 0x1e
 6ba:	81 e0       	ldi	r24, 0x01	; 1
 6bc:	8e a7       	std	Y+46, r24	; 0x2e
 6be:	9e 8d       	ldd	r25, Y+30	; 0x1e
 6c0:	8e 85       	ldd	r24, Y+14	; 0x0e
 6c2:	98 17       	cp	r25, r24
 6c4:	08 f0       	brcs	.+2      	; 0x6c8 <main+0x1fe>
 6c6:	1e a6       	std	Y+46, r1	; 0x2e
 6c8:	9b a5       	ldd	r25, Y+43	; 0x2b
 6ca:	8e 8d       	ldd	r24, Y+30	; 0x1e
 6cc:	98 0f       	add	r25, r24
 6ce:	9f a7       	std	Y+47, r25	; 0x2f
 6d0:	91 e0       	ldi	r25, 0x01	; 1
 6d2:	98 ab       	std	Y+48, r25	; 0x30
 6d4:	8f a5       	ldd	r24, Y+47	; 0x2f
 6d6:	9e 8d       	ldd	r25, Y+30	; 0x1e
 6d8:	89 17       	cp	r24, r25
 6da:	08 f0       	brcs	.+2      	; 0x6de <main+0x214>
 6dc:	18 aa       	std	Y+48, r1	; 0x30
 6de:	8e a5       	ldd	r24, Y+46	; 0x2e
 6e0:	98 a9       	ldd	r25, Y+48	; 0x30
 6e2:	89 2b       	or	r24, r25
 6e4:	8e a7       	std	Y+46, r24	; 0x2e
 6e6:	8f a5       	ldd	r24, Y+47	; 0x2f
 6e8:	8e 8f       	std	Y+30, r24	; 0x1e
 6ea:	9f 85       	ldd	r25, Y+15	; 0x0f
 6ec:	8f 89       	ldd	r24, Y+23	; 0x17
 6ee:	98 0f       	add	r25, r24
 6f0:	9f 8f       	std	Y+31, r25	; 0x1f
 6f2:	91 e0       	ldi	r25, 0x01	; 1
 6f4:	99 ab       	std	Y+49, r25	; 0x31
 6f6:	8f 8d       	ldd	r24, Y+31	; 0x1f
 6f8:	9f 85       	ldd	r25, Y+15	; 0x0f
 6fa:	89 17       	cp	r24, r25
 6fc:	08 f0       	brcs	.+2      	; 0x700 <main+0x236>
 6fe:	19 aa       	std	Y+49, r1	; 0x31
 700:	8e a5       	ldd	r24, Y+46	; 0x2e
 702:	9f 8d       	ldd	r25, Y+31	; 0x1f
 704:	89 0f       	add	r24, r25
 706:	8a ab       	std	Y+50, r24	; 0x32
 708:	81 e0       	ldi	r24, 0x01	; 1
 70a:	8b ab       	std	Y+51, r24	; 0x33
 70c:	9a a9       	ldd	r25, Y+50	; 0x32
 70e:	8f 8d       	ldd	r24, Y+31	; 0x1f
 710:	98 17       	cp	r25, r24
 712:	08 f0       	brcs	.+2      	; 0x716 <main+0x24c>
 714:	1b aa       	std	Y+51, r1	; 0x33
 716:	99 a9       	ldd	r25, Y+49	; 0x31
 718:	8b a9       	ldd	r24, Y+51	; 0x33
 71a:	98 2b       	or	r25, r24
 71c:	99 ab       	std	Y+49, r25	; 0x31
 71e:	9a a9       	ldd	r25, Y+50	; 0x32
 720:	9f 8f       	std	Y+31, r25	; 0x1f
 722:	88 89       	ldd	r24, Y+16	; 0x10
 724:	98 8d       	ldd	r25, Y+24	; 0x18
 726:	89 0f       	add	r24, r25
 728:	88 a3       	std	Y+32, r24	; 0x20
 72a:	89 a9       	ldd	r24, Y+49	; 0x31
 72c:	98 a1       	ldd	r25, Y+32	; 0x20
 72e:	89 0f       	add	r24, r25
 730:	88 a3       	std	Y+32, r24	; 0x20
 732:	89 8d       	ldd	r24, Y+25	; 0x19
 734:	89 83       	std	Y+1, r24	; 0x01
 736:	9a 8d       	ldd	r25, Y+26	; 0x1a
 738:	9a 83       	std	Y+2, r25	; 0x02
 73a:	8b 8d       	ldd	r24, Y+27	; 0x1b
 73c:	8b 83       	std	Y+3, r24	; 0x03
 73e:	9c 8d       	ldd	r25, Y+28	; 0x1c
 740:	9c 83       	std	Y+4, r25	; 0x04
 742:	8d 8d       	ldd	r24, Y+29	; 0x1d
 744:	8d 83       	std	Y+5, r24	; 0x05
 746:	9e 8d       	ldd	r25, Y+30	; 0x1e
 748:	9e 83       	std	Y+6, r25	; 0x06
 74a:	8f 8d       	ldd	r24, Y+31	; 0x1f
 74c:	8f 83       	std	Y+7, r24	; 0x07
 74e:	98 a1       	ldd	r25, Y+32	; 0x20
 750:	98 87       	std	Y+8, r25	; 0x08
 752:	dc ce       	rjmp	.-584    	; 0x50c <main+0x42>

00000754 <TWI_voidInitMaster>:

//-------------------------------------------------------------------------------------------------------------------------------

/*Set master address to 0 if master will not be addressed*/
void TWI_voidInitMaster(u8 Copy_u8Address)
{
 754:	df 93       	push	r29
 756:	cf 93       	push	r28
 758:	0f 92       	push	r0
 75a:	cd b7       	in	r28, 0x3d	; 61
 75c:	de b7       	in	r29, 0x3e	; 62
 75e:	89 83       	std	Y+1, r24	; 0x01

	/*Set SCL frequency to 400kHz, with 8Mhz system frequency*/
	/*1- Set TWBR to 2 => [0:255] */

	TWBR= (u8) (((F_CPU/SCL_Clock)-16) / (2*TWI_PRESCALLER));
 760:	e0 e2       	ldi	r30, 0x20	; 32
 762:	f0 e0       	ldi	r31, 0x00	; 0
 764:	82 e0       	ldi	r24, 0x02	; 2
 766:	80 83       	st	Z, r24

	/* Set the prescaler */
	/*2- Clear the prescaler bits (TWPS)*/
	if (TWI_PRESCALLER==PRESCALLER_BY_1)
	{
		TWSR=0;
 768:	e1 e2       	ldi	r30, 0x21	; 33
 76a:	f0 e0       	ldi	r31, 0x00	; 0
 76c:	10 82       	st	Z, r1
	{
		TWSR=3;
	}

	/*Check if the master node will be addressed & set the Master Address */
	if(Copy_u8Address != 0)
 76e:	89 81       	ldd	r24, Y+1	; 0x01
 770:	88 23       	and	r24, r24
 772:	29 f0       	breq	.+10     	; 0x77e <TWI_voidInitMaster+0x2a>
	{
		/*Set the required address in the 7 MSB of TWAR*/
		TWAR = Copy_u8Address<<1;
 774:	e2 e2       	ldi	r30, 0x22	; 34
 776:	f0 e0       	ldi	r31, 0x00	; 0
 778:	89 81       	ldd	r24, Y+1	; 0x01
 77a:	88 0f       	add	r24, r24
 77c:	80 83       	st	Z, r24
	}

	/************** Enable *******************/

	/*Enable Acknowledge bit*/
	SET_BIT(TWCR,TWCR_TWEA);
 77e:	a6 e5       	ldi	r26, 0x56	; 86
 780:	b0 e0       	ldi	r27, 0x00	; 0
 782:	e6 e5       	ldi	r30, 0x56	; 86
 784:	f0 e0       	ldi	r31, 0x00	; 0
 786:	80 81       	ld	r24, Z
 788:	80 64       	ori	r24, 0x40	; 64
 78a:	8c 93       	st	X, r24

	/*Enable TWI Peripheral*/
	SET_BIT(TWCR,TWCR_TWEN);
 78c:	a6 e5       	ldi	r26, 0x56	; 86
 78e:	b0 e0       	ldi	r27, 0x00	; 0
 790:	e6 e5       	ldi	r30, 0x56	; 86
 792:	f0 e0       	ldi	r31, 0x00	; 0
 794:	80 81       	ld	r24, Z
 796:	84 60       	ori	r24, 0x04	; 4
 798:	8c 93       	st	X, r24
}
 79a:	0f 90       	pop	r0
 79c:	cf 91       	pop	r28
 79e:	df 91       	pop	r29
 7a0:	08 95       	ret

000007a2 <TWI_voidInitSlave>:

void TWI_voidInitSlave(u8 Copy_u8Address)
{
 7a2:	df 93       	push	r29
 7a4:	cf 93       	push	r28
 7a6:	0f 92       	push	r0
 7a8:	cd b7       	in	r28, 0x3d	; 61
 7aa:	de b7       	in	r29, 0x3e	; 62
 7ac:	89 83       	std	Y+1, r24	; 0x01
	/*Set the slave address*/
	TWAR = Copy_u8Address<<1;
 7ae:	e2 e2       	ldi	r30, 0x22	; 34
 7b0:	f0 e0       	ldi	r31, 0x00	; 0
 7b2:	89 81       	ldd	r24, Y+1	; 0x01
 7b4:	88 0f       	add	r24, r24
 7b6:	80 83       	st	Z, r24

	/************** Enable *******************/

	/*Enable Acknowledge bit*/
	SET_BIT(TWCR,TWCR_TWEA);
 7b8:	a6 e5       	ldi	r26, 0x56	; 86
 7ba:	b0 e0       	ldi	r27, 0x00	; 0
 7bc:	e6 e5       	ldi	r30, 0x56	; 86
 7be:	f0 e0       	ldi	r31, 0x00	; 0
 7c0:	80 81       	ld	r24, Z
 7c2:	80 64       	ori	r24, 0x40	; 64
 7c4:	8c 93       	st	X, r24

	/*Enable TWI*/
	SET_BIT(TWCR,TWCR_TWEN);
 7c6:	a6 e5       	ldi	r26, 0x56	; 86
 7c8:	b0 e0       	ldi	r27, 0x00	; 0
 7ca:	e6 e5       	ldi	r30, 0x56	; 86
 7cc:	f0 e0       	ldi	r31, 0x00	; 0
 7ce:	80 81       	ld	r24, Z
 7d0:	84 60       	ori	r24, 0x04	; 4
 7d2:	8c 93       	st	X, r24
}
 7d4:	0f 90       	pop	r0
 7d6:	cf 91       	pop	r28
 7d8:	df 91       	pop	r29
 7da:	08 95       	ret

000007dc <TWI_SendStartCondition>:

TWI_ErrStatus TWI_SendStartCondition(void)
{
 7dc:	df 93       	push	r29
 7de:	cf 93       	push	r28
 7e0:	0f 92       	push	r0
 7e2:	cd b7       	in	r28, 0x3d	; 61
 7e4:	de b7       	in	r29, 0x3e	; 62
	TWI_ErrStatus Local_Error= NoError;
 7e6:	19 82       	std	Y+1, r1	; 0x01


	/*Send start condition*/
	SET_BIT(TWCR, TWCR_TWSTA);
 7e8:	a6 e5       	ldi	r26, 0x56	; 86
 7ea:	b0 e0       	ldi	r27, 0x00	; 0
 7ec:	e6 e5       	ldi	r30, 0x56	; 86
 7ee:	f0 e0       	ldi	r31, 0x00	; 0
 7f0:	80 81       	ld	r24, Z
 7f2:	80 62       	ori	r24, 0x20	; 32
 7f4:	8c 93       	st	X, r24
	/*Clear the interrupt flag to start the previous operation*/
	SET_BIT(TWCR,TWCR_TWINT);
 7f6:	a6 e5       	ldi	r26, 0x56	; 86
 7f8:	b0 e0       	ldi	r27, 0x00	; 0
 7fa:	e6 e5       	ldi	r30, 0x56	; 86
 7fc:	f0 e0       	ldi	r31, 0x00	; 0
 7fe:	80 81       	ld	r24, Z
 800:	80 68       	ori	r24, 0x80	; 128
 802:	8c 93       	st	X, r24
	Hint : we could use 
	TWCR=(1<<TWINT)|(1<<TWEN)|(1<<TWSTA);
	 */

	/*wait until the operation finishes and the flag is raised*/
	while((GET_BIT(TWCR,TWCR_TWINT))==0);
 804:	e6 e5       	ldi	r30, 0x56	; 86
 806:	f0 e0       	ldi	r31, 0x00	; 0
 808:	80 81       	ld	r24, Z
 80a:	88 23       	and	r24, r24
 80c:	dc f7       	brge	.-10     	; 0x804 <TWI_SendStartCondition+0x28>

	/*Check the operation status (Bit Masking) */
	if((TWSR & 0xF8) != START_ACK )
 80e:	e1 e2       	ldi	r30, 0x21	; 33
 810:	f0 e0       	ldi	r31, 0x00	; 0
 812:	80 81       	ld	r24, Z
 814:	88 2f       	mov	r24, r24
 816:	90 e0       	ldi	r25, 0x00	; 0
 818:	88 7f       	andi	r24, 0xF8	; 248
 81a:	90 70       	andi	r25, 0x00	; 0
 81c:	88 30       	cpi	r24, 0x08	; 8
 81e:	91 05       	cpc	r25, r1
 820:	11 f0       	breq	.+4      	; 0x826 <TWI_SendStartCondition+0x4a>
	{
		Local_Error = StartConditionErr;
 822:	81 e0       	ldi	r24, 0x01	; 1
 824:	89 83       	std	Y+1, r24	; 0x01
	else
	{
		/*Do nothing*/
	}

	return Local_Error;
 826:	89 81       	ldd	r24, Y+1	; 0x01
}
 828:	0f 90       	pop	r0
 82a:	cf 91       	pop	r28
 82c:	df 91       	pop	r29
 82e:	08 95       	ret

00000830 <TWI_SendRepeatedStart>:

TWI_ErrStatus TWI_SendRepeatedStart(void)
{
 830:	df 93       	push	r29
 832:	cf 93       	push	r28
 834:	0f 92       	push	r0
 836:	cd b7       	in	r28, 0x3d	; 61
 838:	de b7       	in	r29, 0x3e	; 62
	TWI_ErrStatus Local_Error= NoError;
 83a:	19 82       	std	Y+1, r1	; 0x01

	/*Send start condition*/
	SET_BIT(TWCR, TWCR_TWSTA);
 83c:	a6 e5       	ldi	r26, 0x56	; 86
 83e:	b0 e0       	ldi	r27, 0x00	; 0
 840:	e6 e5       	ldi	r30, 0x56	; 86
 842:	f0 e0       	ldi	r31, 0x00	; 0
 844:	80 81       	ld	r24, Z
 846:	80 62       	ori	r24, 0x20	; 32
 848:	8c 93       	st	X, r24
	/*Clear the interrupt flag to start the previous operation*/
	SET_BIT(TWCR,TWCR_TWINT);
 84a:	a6 e5       	ldi	r26, 0x56	; 86
 84c:	b0 e0       	ldi	r27, 0x00	; 0
 84e:	e6 e5       	ldi	r30, 0x56	; 86
 850:	f0 e0       	ldi	r31, 0x00	; 0
 852:	80 81       	ld	r24, Z
 854:	80 68       	ori	r24, 0x80	; 128
 856:	8c 93       	st	X, r24
	TWCR=(1<<TWINT)|(1<<TWEN)|(1<<TWSTA);
	 */


	/*wait until the operation finishes and the flag is raised*/
	while((GET_BIT(TWCR,TWCR_TWINT))==0);
 858:	e6 e5       	ldi	r30, 0x56	; 86
 85a:	f0 e0       	ldi	r31, 0x00	; 0
 85c:	80 81       	ld	r24, Z
 85e:	88 23       	and	r24, r24
 860:	dc f7       	brge	.-10     	; 0x858 <TWI_SendRepeatedStart+0x28>

	/*Check the operation status*/
	if((TWSR & 0xF8) != REP_START_ACK )
 862:	e1 e2       	ldi	r30, 0x21	; 33
 864:	f0 e0       	ldi	r31, 0x00	; 0
 866:	80 81       	ld	r24, Z
 868:	88 2f       	mov	r24, r24
 86a:	90 e0       	ldi	r25, 0x00	; 0
 86c:	88 7f       	andi	r24, 0xF8	; 248
 86e:	90 70       	andi	r25, 0x00	; 0
 870:	80 31       	cpi	r24, 0x10	; 16
 872:	91 05       	cpc	r25, r1
 874:	11 f0       	breq	.+4      	; 0x87a <__stack+0x1b>
	{
		Local_Error = RepeatedStartError;
 876:	82 e0       	ldi	r24, 0x02	; 2
 878:	89 83       	std	Y+1, r24	; 0x01
	else
	{
		/*Do nothing*/
	}

	return Local_Error;
 87a:	89 81       	ldd	r24, Y+1	; 0x01
}
 87c:	0f 90       	pop	r0
 87e:	cf 91       	pop	r28
 880:	df 91       	pop	r29
 882:	08 95       	ret

00000884 <TWI_SendSlaveAddressWithWrite>:

TWI_ErrStatus TWI_SendSlaveAddressWithWrite(u8 Copy_u8SlaveAddress)
{
 884:	df 93       	push	r29
 886:	cf 93       	push	r28
 888:	00 d0       	rcall	.+0      	; 0x88a <TWI_SendSlaveAddressWithWrite+0x6>
 88a:	cd b7       	in	r28, 0x3d	; 61
 88c:	de b7       	in	r29, 0x3e	; 62
 88e:	8a 83       	std	Y+2, r24	; 0x02
	TWI_ErrStatus Local_Error= NoError;
 890:	19 82       	std	Y+1, r1	; 0x01

	/*send the 7bit slave address to the bus*/
	TWDR = (Copy_u8SlaveAddress<<1) ;
 892:	e3 e2       	ldi	r30, 0x23	; 35
 894:	f0 e0       	ldi	r31, 0x00	; 0
 896:	8a 81       	ldd	r24, Y+2	; 0x02
 898:	88 0f       	add	r24, r24
 89a:	80 83       	st	Z, r24
	/*set the write request in the LSB in the data register*/
	CLR_BIT(TWDR,0);
 89c:	a3 e2       	ldi	r26, 0x23	; 35
 89e:	b0 e0       	ldi	r27, 0x00	; 0
 8a0:	e3 e2       	ldi	r30, 0x23	; 35
 8a2:	f0 e0       	ldi	r31, 0x00	; 0
 8a4:	80 81       	ld	r24, Z
 8a6:	8e 7f       	andi	r24, 0xFE	; 254
 8a8:	8c 93       	st	X, r24

	/*Clear the start condition bit*/
	CLR_BIT(TWCR,TWCR_TWSTA);
 8aa:	a6 e5       	ldi	r26, 0x56	; 86
 8ac:	b0 e0       	ldi	r27, 0x00	; 0
 8ae:	e6 e5       	ldi	r30, 0x56	; 86
 8b0:	f0 e0       	ldi	r31, 0x00	; 0
 8b2:	80 81       	ld	r24, Z
 8b4:	8f 7d       	andi	r24, 0xDF	; 223
 8b6:	8c 93       	st	X, r24

	/*Clear the interrupt flag to start the previous operation*/
	SET_BIT(TWCR,TWCR_TWINT);
 8b8:	a6 e5       	ldi	r26, 0x56	; 86
 8ba:	b0 e0       	ldi	r27, 0x00	; 0
 8bc:	e6 e5       	ldi	r30, 0x56	; 86
 8be:	f0 e0       	ldi	r31, 0x00	; 0
 8c0:	80 81       	ld	r24, Z
 8c2:	80 68       	ori	r24, 0x80	; 128
 8c4:	8c 93       	st	X, r24

	/*wait until the operation finishes and the flag is raised*/
	while((GET_BIT(TWCR,TWCR_TWINT))==0);
 8c6:	e6 e5       	ldi	r30, 0x56	; 86
 8c8:	f0 e0       	ldi	r31, 0x00	; 0
 8ca:	80 81       	ld	r24, Z
 8cc:	88 23       	and	r24, r24
 8ce:	dc f7       	brge	.-10     	; 0x8c6 <TWI_SendSlaveAddressWithWrite+0x42>

	/*Check the operation status*/
	if((TWSR & 0xF8) != SLAVE_ADD_AND_WR_ACK )
 8d0:	e1 e2       	ldi	r30, 0x21	; 33
 8d2:	f0 e0       	ldi	r31, 0x00	; 0
 8d4:	80 81       	ld	r24, Z
 8d6:	88 2f       	mov	r24, r24
 8d8:	90 e0       	ldi	r25, 0x00	; 0
 8da:	88 7f       	andi	r24, 0xF8	; 248
 8dc:	90 70       	andi	r25, 0x00	; 0
 8de:	88 31       	cpi	r24, 0x18	; 24
 8e0:	91 05       	cpc	r25, r1
 8e2:	11 f0       	breq	.+4      	; 0x8e8 <TWI_SendSlaveAddressWithWrite+0x64>
	{
		Local_Error = SlaveAddressWithWriteErr;
 8e4:	83 e0       	ldi	r24, 0x03	; 3
 8e6:	89 83       	std	Y+1, r24	; 0x01
	else
	{
		/*Do nothing*/
	}

	return Local_Error;
 8e8:	89 81       	ldd	r24, Y+1	; 0x01
}
 8ea:	0f 90       	pop	r0
 8ec:	0f 90       	pop	r0
 8ee:	cf 91       	pop	r28
 8f0:	df 91       	pop	r29
 8f2:	08 95       	ret

000008f4 <TWI_SendSlaveAddressWithRead>:

TWI_ErrStatus TWI_SendSlaveAddressWithRead(u8 Copy_u8SlaveAddress)
{
 8f4:	df 93       	push	r29
 8f6:	cf 93       	push	r28
 8f8:	00 d0       	rcall	.+0      	; 0x8fa <TWI_SendSlaveAddressWithRead+0x6>
 8fa:	cd b7       	in	r28, 0x3d	; 61
 8fc:	de b7       	in	r29, 0x3e	; 62
 8fe:	8a 83       	std	Y+2, r24	; 0x02
	TWI_ErrStatus Local_Error= NoError;
 900:	19 82       	std	Y+1, r1	; 0x01

	/*send the 7bit slave address to the bus*/
	TWDR = Copy_u8SlaveAddress <<1;
 902:	e3 e2       	ldi	r30, 0x23	; 35
 904:	f0 e0       	ldi	r31, 0x00	; 0
 906:	8a 81       	ldd	r24, Y+2	; 0x02
 908:	88 0f       	add	r24, r24
 90a:	80 83       	st	Z, r24
	/*set the read request in the LSB in the data register*/
	SET_BIT(TWDR,0);
 90c:	a3 e2       	ldi	r26, 0x23	; 35
 90e:	b0 e0       	ldi	r27, 0x00	; 0
 910:	e3 e2       	ldi	r30, 0x23	; 35
 912:	f0 e0       	ldi	r31, 0x00	; 0
 914:	80 81       	ld	r24, Z
 916:	81 60       	ori	r24, 0x01	; 1
 918:	8c 93       	st	X, r24

	/*Clear the start condition bit*/
	CLR_BIT(TWCR,TWCR_TWSTA);
 91a:	a6 e5       	ldi	r26, 0x56	; 86
 91c:	b0 e0       	ldi	r27, 0x00	; 0
 91e:	e6 e5       	ldi	r30, 0x56	; 86
 920:	f0 e0       	ldi	r31, 0x00	; 0
 922:	80 81       	ld	r24, Z
 924:	8f 7d       	andi	r24, 0xDF	; 223
 926:	8c 93       	st	X, r24

	/*Clear the interrupt flag to start the previous operation*/
	SET_BIT(TWCR,TWCR_TWINT);
 928:	a6 e5       	ldi	r26, 0x56	; 86
 92a:	b0 e0       	ldi	r27, 0x00	; 0
 92c:	e6 e5       	ldi	r30, 0x56	; 86
 92e:	f0 e0       	ldi	r31, 0x00	; 0
 930:	80 81       	ld	r24, Z
 932:	80 68       	ori	r24, 0x80	; 128
 934:	8c 93       	st	X, r24

	/*wait until the operation finishes and the flag is raised*/
	while((GET_BIT(TWCR,TWCR_TWINT))==0);
 936:	e6 e5       	ldi	r30, 0x56	; 86
 938:	f0 e0       	ldi	r31, 0x00	; 0
 93a:	80 81       	ld	r24, Z
 93c:	88 23       	and	r24, r24
 93e:	dc f7       	brge	.-10     	; 0x936 <TWI_SendSlaveAddressWithRead+0x42>

	/*Check the operation status*/
	if((TWSR & 0xF8) != SLAVE_ADD_AND_RD_ACK )
 940:	e1 e2       	ldi	r30, 0x21	; 33
 942:	f0 e0       	ldi	r31, 0x00	; 0
 944:	80 81       	ld	r24, Z
 946:	88 2f       	mov	r24, r24
 948:	90 e0       	ldi	r25, 0x00	; 0
 94a:	88 7f       	andi	r24, 0xF8	; 248
 94c:	90 70       	andi	r25, 0x00	; 0
 94e:	80 34       	cpi	r24, 0x40	; 64
 950:	91 05       	cpc	r25, r1
 952:	11 f0       	breq	.+4      	; 0x958 <TWI_SendSlaveAddressWithRead+0x64>
	{
		Local_Error = SlaveAddressWithReadErr;
 954:	84 e0       	ldi	r24, 0x04	; 4
 956:	89 83       	std	Y+1, r24	; 0x01
	else
	{
		/*Do nothing*/
	}

	return Local_Error;
 958:	89 81       	ldd	r24, Y+1	; 0x01
}
 95a:	0f 90       	pop	r0
 95c:	0f 90       	pop	r0
 95e:	cf 91       	pop	r28
 960:	df 91       	pop	r29
 962:	08 95       	ret

00000964 <TWI_MasterWriteDataByte>:

TWI_ErrStatus TWI_MasterWriteDataByte(u8 Copy_u8DataByte)
{
 964:	df 93       	push	r29
 966:	cf 93       	push	r28
 968:	00 d0       	rcall	.+0      	; 0x96a <TWI_MasterWriteDataByte+0x6>
 96a:	cd b7       	in	r28, 0x3d	; 61
 96c:	de b7       	in	r29, 0x3e	; 62
 96e:	8a 83       	std	Y+2, r24	; 0x02
	TWI_ErrStatus Local_Error= NoError;
 970:	19 82       	std	Y+1, r1	; 0x01

	/*Write the data byte on the bus*/
	TWDR = Copy_u8DataByte;
 972:	e3 e2       	ldi	r30, 0x23	; 35
 974:	f0 e0       	ldi	r31, 0x00	; 0
 976:	8a 81       	ldd	r24, Y+2	; 0x02
 978:	80 83       	st	Z, r24

	/*Clear the interrupt flag to start the previous operation*/
	SET_BIT(TWCR,TWCR_TWINT);
 97a:	a6 e5       	ldi	r26, 0x56	; 86
 97c:	b0 e0       	ldi	r27, 0x00	; 0
 97e:	e6 e5       	ldi	r30, 0x56	; 86
 980:	f0 e0       	ldi	r31, 0x00	; 0
 982:	80 81       	ld	r24, Z
 984:	80 68       	ori	r24, 0x80	; 128
 986:	8c 93       	st	X, r24

	/*wait until the operation finishes and the flag is raised*/
	while((GET_BIT(TWCR,TWCR_TWINT))==0);
 988:	e6 e5       	ldi	r30, 0x56	; 86
 98a:	f0 e0       	ldi	r31, 0x00	; 0
 98c:	80 81       	ld	r24, Z
 98e:	88 23       	and	r24, r24
 990:	dc f7       	brge	.-10     	; 0x988 <TWI_MasterWriteDataByte+0x24>

	/*Check the operation status*/
	if((TWSR & 0xF8) !=  MSTR_WR_BYTE_ACK)
 992:	e1 e2       	ldi	r30, 0x21	; 33
 994:	f0 e0       	ldi	r31, 0x00	; 0
 996:	80 81       	ld	r24, Z
 998:	88 2f       	mov	r24, r24
 99a:	90 e0       	ldi	r25, 0x00	; 0
 99c:	88 7f       	andi	r24, 0xF8	; 248
 99e:	90 70       	andi	r25, 0x00	; 0
 9a0:	88 32       	cpi	r24, 0x28	; 40
 9a2:	91 05       	cpc	r25, r1
 9a4:	11 f0       	breq	.+4      	; 0x9aa <TWI_MasterWriteDataByte+0x46>
	{
		Local_Error = MasterWriteByteErr;
 9a6:	85 e0       	ldi	r24, 0x05	; 5
 9a8:	89 83       	std	Y+1, r24	; 0x01
	else
	{
		/*Do nothing*/
	}

	return Local_Error;
 9aa:	89 81       	ldd	r24, Y+1	; 0x01
}
 9ac:	0f 90       	pop	r0
 9ae:	0f 90       	pop	r0
 9b0:	cf 91       	pop	r28
 9b2:	df 91       	pop	r29
 9b4:	08 95       	ret

000009b6 <TWI_MasterReadDataByte>:

TWI_ErrStatus TWI_MasterReadDataByte(u8* Copy_pu8DataByte)
{
 9b6:	df 93       	push	r29
 9b8:	cf 93       	push	r28
 9ba:	00 d0       	rcall	.+0      	; 0x9bc <TWI_MasterReadDataByte+0x6>
 9bc:	0f 92       	push	r0
 9be:	cd b7       	in	r28, 0x3d	; 61
 9c0:	de b7       	in	r29, 0x3e	; 62
 9c2:	9b 83       	std	Y+3, r25	; 0x03
 9c4:	8a 83       	std	Y+2, r24	; 0x02
	TWI_ErrStatus Local_Error= NoError;
 9c6:	19 82       	std	Y+1, r1	; 0x01

	/*Clear the interrupt flag to allow the slave send the data*/
	SET_BIT(TWCR,TWCR_TWINT);
 9c8:	a6 e5       	ldi	r26, 0x56	; 86
 9ca:	b0 e0       	ldi	r27, 0x00	; 0
 9cc:	e6 e5       	ldi	r30, 0x56	; 86
 9ce:	f0 e0       	ldi	r31, 0x00	; 0
 9d0:	80 81       	ld	r24, Z
 9d2:	80 68       	ori	r24, 0x80	; 128
 9d4:	8c 93       	st	X, r24

	/*wait until the operation finishes and the flag is raised*/
	while((GET_BIT(TWCR,TWCR_TWINT))==0);
 9d6:	e6 e5       	ldi	r30, 0x56	; 86
 9d8:	f0 e0       	ldi	r31, 0x00	; 0
 9da:	80 81       	ld	r24, Z
 9dc:	88 23       	and	r24, r24
 9de:	dc f7       	brge	.-10     	; 0x9d6 <TWI_MasterReadDataByte+0x20>

	/*Check the operation status*/
	if((TWSR & 0xF8) !=  MSTR_RD_BYTE_WITH_ACK)
 9e0:	e1 e2       	ldi	r30, 0x21	; 33
 9e2:	f0 e0       	ldi	r31, 0x00	; 0
 9e4:	80 81       	ld	r24, Z
 9e6:	88 2f       	mov	r24, r24
 9e8:	90 e0       	ldi	r25, 0x00	; 0
 9ea:	88 7f       	andi	r24, 0xF8	; 248
 9ec:	90 70       	andi	r25, 0x00	; 0
 9ee:	80 35       	cpi	r24, 0x50	; 80
 9f0:	91 05       	cpc	r25, r1
 9f2:	19 f0       	breq	.+6      	; 0x9fa <TWI_MasterReadDataByte+0x44>
	{
		Local_Error = MasterReadByteErr;
 9f4:	86 e0       	ldi	r24, 0x06	; 6
 9f6:	89 83       	std	Y+1, r24	; 0x01
 9f8:	06 c0       	rjmp	.+12     	; 0xa06 <TWI_MasterReadDataByte+0x50>
	}
	else
	{
		/*Read the received data*/
		*Copy_pu8DataByte = TWDR;
 9fa:	e3 e2       	ldi	r30, 0x23	; 35
 9fc:	f0 e0       	ldi	r31, 0x00	; 0
 9fe:	80 81       	ld	r24, Z
 a00:	ea 81       	ldd	r30, Y+2	; 0x02
 a02:	fb 81       	ldd	r31, Y+3	; 0x03
 a04:	80 83       	st	Z, r24
	}

	return Local_Error;
 a06:	89 81       	ldd	r24, Y+1	; 0x01
}
 a08:	0f 90       	pop	r0
 a0a:	0f 90       	pop	r0
 a0c:	0f 90       	pop	r0
 a0e:	cf 91       	pop	r28
 a10:	df 91       	pop	r29
 a12:	08 95       	ret

00000a14 <TWI_SlaveWriteDataByte>:

TWI_ErrStatus TWI_SlaveWriteDataByte(u8 Copy_u8DataByte)
{
 a14:	df 93       	push	r29
 a16:	cf 93       	push	r28
 a18:	00 d0       	rcall	.+0      	; 0xa1a <TWI_SlaveWriteDataByte+0x6>
 a1a:	cd b7       	in	r28, 0x3d	; 61
 a1c:	de b7       	in	r29, 0x3e	; 62
 a1e:	8a 83       	std	Y+2, r24	; 0x02
	TWI_ErrStatus Local_Error= NoError;
 a20:	19 82       	std	Y+1, r1	; 0x01

	/*Write the data byte on the bus*/
	TWDR = Copy_u8DataByte;
 a22:	e3 e2       	ldi	r30, 0x23	; 35
 a24:	f0 e0       	ldi	r31, 0x00	; 0
 a26:	8a 81       	ldd	r24, Y+2	; 0x02
 a28:	80 83       	st	Z, r24

	/*Clear the interrupt flag to start the previous operation*/
	SET_BIT(TWCR,TWCR_TWINT);
 a2a:	a6 e5       	ldi	r26, 0x56	; 86
 a2c:	b0 e0       	ldi	r27, 0x00	; 0
 a2e:	e6 e5       	ldi	r30, 0x56	; 86
 a30:	f0 e0       	ldi	r31, 0x00	; 0
 a32:	80 81       	ld	r24, Z
 a34:	80 68       	ori	r24, 0x80	; 128
 a36:	8c 93       	st	X, r24

	/*wait until the operation finishes and the flag is raised*/
	while((GET_BIT(TWCR,TWCR_TWINT))==0);
 a38:	e6 e5       	ldi	r30, 0x56	; 86
 a3a:	f0 e0       	ldi	r31, 0x00	; 0
 a3c:	80 81       	ld	r24, Z
 a3e:	88 23       	and	r24, r24
 a40:	dc f7       	brge	.-10     	; 0xa38 <TWI_SlaveWriteDataByte+0x24>

	/*Check the operation status*/
	if((TWSR & 0xF8) !=  SLAVE_BYTE_TRANSMITTED)
 a42:	e1 e2       	ldi	r30, 0x21	; 33
 a44:	f0 e0       	ldi	r31, 0x00	; 0
 a46:	80 81       	ld	r24, Z
 a48:	88 2f       	mov	r24, r24
 a4a:	90 e0       	ldi	r25, 0x00	; 0
 a4c:	88 7f       	andi	r24, 0xF8	; 248
 a4e:	90 70       	andi	r25, 0x00	; 0
 a50:	88 3b       	cpi	r24, 0xB8	; 184
 a52:	91 05       	cpc	r25, r1
 a54:	11 f0       	breq	.+4      	; 0xa5a <TWI_SlaveWriteDataByte+0x46>
	{
		Local_Error = SlaveWriteByteErr;
 a56:	87 e0       	ldi	r24, 0x07	; 7
 a58:	89 83       	std	Y+1, r24	; 0x01
	else
	{
		/*Do nothing*/
	}

	return Local_Error;
 a5a:	89 81       	ldd	r24, Y+1	; 0x01
}
 a5c:	0f 90       	pop	r0
 a5e:	0f 90       	pop	r0
 a60:	cf 91       	pop	r28
 a62:	df 91       	pop	r29
 a64:	08 95       	ret

00000a66 <TWI_SlaveReadDataByte>:

TWI_ErrStatus TWI_SlaveReadDataByte(u8* Copy_pu8DataByte)
{
 a66:	df 93       	push	r29
 a68:	cf 93       	push	r28
 a6a:	00 d0       	rcall	.+0      	; 0xa6c <TWI_SlaveReadDataByte+0x6>
 a6c:	0f 92       	push	r0
 a6e:	cd b7       	in	r28, 0x3d	; 61
 a70:	de b7       	in	r29, 0x3e	; 62
 a72:	9b 83       	std	Y+3, r25	; 0x03
 a74:	8a 83       	std	Y+2, r24	; 0x02
	TWI_ErrStatus Local_Error= NoError;
 a76:	19 82       	std	Y+1, r1	; 0x01

	SET_BIT(TWCR,TWCR_TWINT);
 a78:	a6 e5       	ldi	r26, 0x56	; 86
 a7a:	b0 e0       	ldi	r27, 0x00	; 0
 a7c:	e6 e5       	ldi	r30, 0x56	; 86
 a7e:	f0 e0       	ldi	r31, 0x00	; 0
 a80:	80 81       	ld	r24, Z
 a82:	80 68       	ori	r24, 0x80	; 128
 a84:	8c 93       	st	X, r24

	/*wait until the operation finishes and the flag is raised*/
	while((GET_BIT(TWCR,TWCR_TWINT))==0);
 a86:	e6 e5       	ldi	r30, 0x56	; 86
 a88:	f0 e0       	ldi	r31, 0x00	; 0
 a8a:	80 81       	ld	r24, Z
 a8c:	88 23       	and	r24, r24
 a8e:	dc f7       	brge	.-10     	; 0xa86 <TWI_SlaveReadDataByte+0x20>

	/*Check the operation status*/
	if((TWSR & 0xF8) !=  SLAVE_ADD_RCVD_WR_REQ)
 a90:	e1 e2       	ldi	r30, 0x21	; 33
 a92:	f0 e0       	ldi	r31, 0x00	; 0
 a94:	80 81       	ld	r24, Z
 a96:	88 2f       	mov	r24, r24
 a98:	90 e0       	ldi	r25, 0x00	; 0
 a9a:	88 7f       	andi	r24, 0xF8	; 248
 a9c:	90 70       	andi	r25, 0x00	; 0
 a9e:	80 36       	cpi	r24, 0x60	; 96
 aa0:	91 05       	cpc	r25, r1
 aa2:	11 f0       	breq	.+4      	; 0xaa8 <TWI_SlaveReadDataByte+0x42>
	{
		Local_Error = SlaveReadByteErr;
 aa4:	88 e0       	ldi	r24, 0x08	; 8
 aa6:	89 83       	std	Y+1, r24	; 0x01
	}

	SET_BIT(TWCR,TWCR_TWINT);
 aa8:	a6 e5       	ldi	r26, 0x56	; 86
 aaa:	b0 e0       	ldi	r27, 0x00	; 0
 aac:	e6 e5       	ldi	r30, 0x56	; 86
 aae:	f0 e0       	ldi	r31, 0x00	; 0
 ab0:	80 81       	ld	r24, Z
 ab2:	80 68       	ori	r24, 0x80	; 128
 ab4:	8c 93       	st	X, r24

	/*wait until the operation finishes and the flag is raised*/
	while((GET_BIT(TWCR,TWCR_TWINT))==0);
 ab6:	e6 e5       	ldi	r30, 0x56	; 86
 ab8:	f0 e0       	ldi	r31, 0x00	; 0
 aba:	80 81       	ld	r24, Z
 abc:	88 23       	and	r24, r24
 abe:	dc f7       	brge	.-10     	; 0xab6 <TWI_SlaveReadDataByte+0x50>
	/*Check the operation status*/
	if((TWSR & 0xF8) !=  SLAVE_DATA_RECEIVED)
 ac0:	e1 e2       	ldi	r30, 0x21	; 33
 ac2:	f0 e0       	ldi	r31, 0x00	; 0
 ac4:	80 81       	ld	r24, Z
 ac6:	88 2f       	mov	r24, r24
 ac8:	90 e0       	ldi	r25, 0x00	; 0
 aca:	88 7f       	andi	r24, 0xF8	; 248
 acc:	90 70       	andi	r25, 0x00	; 0
 ace:	80 38       	cpi	r24, 0x80	; 128
 ad0:	91 05       	cpc	r25, r1
 ad2:	19 f0       	breq	.+6      	; 0xada <TWI_SlaveReadDataByte+0x74>
	{
		Local_Error = SlaveReadByteErr;
 ad4:	88 e0       	ldi	r24, 0x08	; 8
 ad6:	89 83       	std	Y+1, r24	; 0x01
 ad8:	06 c0       	rjmp	.+12     	; 0xae6 <TWI_SlaveReadDataByte+0x80>
	}
	else
	{
		/*Read the received data*/
		*Copy_pu8DataByte = TWDR;
 ada:	e3 e2       	ldi	r30, 0x23	; 35
 adc:	f0 e0       	ldi	r31, 0x00	; 0
 ade:	80 81       	ld	r24, Z
 ae0:	ea 81       	ldd	r30, Y+2	; 0x02
 ae2:	fb 81       	ldd	r31, Y+3	; 0x03
 ae4:	80 83       	st	Z, r24
	}

	return Local_Error;
 ae6:	89 81       	ldd	r24, Y+1	; 0x01
}
 ae8:	0f 90       	pop	r0
 aea:	0f 90       	pop	r0
 aec:	0f 90       	pop	r0
 aee:	cf 91       	pop	r28
 af0:	df 91       	pop	r29
 af2:	08 95       	ret

00000af4 <TWI_SendStopCondition>:


void TWI_SendStopCondition(void)
{
 af4:	df 93       	push	r29
 af6:	cf 93       	push	r28
 af8:	cd b7       	in	r28, 0x3d	; 61
 afa:	de b7       	in	r29, 0x3e	; 62
	/*Sent a stop condition on the bus*/
	SET_BIT(TWCR,TWCR_TWSTO);
 afc:	a6 e5       	ldi	r26, 0x56	; 86
 afe:	b0 e0       	ldi	r27, 0x00	; 0
 b00:	e6 e5       	ldi	r30, 0x56	; 86
 b02:	f0 e0       	ldi	r31, 0x00	; 0
 b04:	80 81       	ld	r24, Z
 b06:	80 61       	ori	r24, 0x10	; 16
 b08:	8c 93       	st	X, r24

	/*Clear the interrupt flag to start the previous operation*/
	SET_BIT(TWCR,TWCR_TWINT);
 b0a:	a6 e5       	ldi	r26, 0x56	; 86
 b0c:	b0 e0       	ldi	r27, 0x00	; 0
 b0e:	e6 e5       	ldi	r30, 0x56	; 86
 b10:	f0 e0       	ldi	r31, 0x00	; 0
 b12:	80 81       	ld	r24, Z
 b14:	80 68       	ori	r24, 0x80	; 128
 b16:	8c 93       	st	X, r24

}
 b18:	cf 91       	pop	r28
 b1a:	df 91       	pop	r29
 b1c:	08 95       	ret

00000b1e <_exit>:
 b1e:	f8 94       	cli

00000b20 <__stop_program>:
 b20:	ff cf       	rjmp	.-2      	; 0xb20 <__stop_program>
